(imatplotlib.font_manager
FontManager
p1
(dp2
S'afm_lookup_cache'
p3
(dp4
sS'ttflist'
p5
(lp6
ccopy_reg
_reconstructor
p7
(cmatplotlib.font_manager
FontEntry
p8
c__builtin__
object
p9
NtRp10
(dp11
S'style'
p12
S'normal'
p13
sS'name'
p14
S'cmex10'
p15
sS'weight'
p16
I400
sS'stretch'
p17
g13
sS'variant'
p18
g13
sS'fname'
p19
S'/System/Library/Frameworks/Python.framework/Versions/2.7/Extras/lib/python/matplotlib/mpl-data/fonts/ttf/cmex10.ttf'
p20
sS'size'
p21
S'scalable'
p22
sbag7
(g8
g9
NtRp23
(dp24
g12
S'oblique'
p25
sg14
S'Bitstream Vera Sans'
p26
sg16
I700
sg17
g13
sg18
g13
sg19
S'/System/Library/Frameworks/Python.framework/Versions/2.7/Extras/lib/python/matplotlib/mpl-data/fonts/ttf/VeraBI.ttf'
p27
sg21
g22
sbag7
(g8
g9
NtRp28
(dp29
g12
g13
sg14
S'STIXNonUnicode'
p30
sg16
I400
sg17
g13
sg18
g13
sg19
S'/System/Library/Frameworks/Python.framework/Versions/2.7/Extras/lib/python/matplotlib/mpl-data/fonts/ttf/STIXNonUni.ttf'
p31
sg21
g22
sbag7
(g8
g9
NtRp32
(dp33
g12
g13
sg14
S'STIXNonUnicode'
p34
sg16
I700
sg17
g13
sg18
g13
sg19
S'/System/Library/Frameworks/Python.framework/Versions/2.7/Extras/lib/python/matplotlib/mpl-data/fonts/ttf/STIXNonUniBol.ttf'
p35
sg21
g22
sbag7
(g8
g9
NtRp36
(dp37
g12
g13
sg14
S'Bitstream Vera Sans Mono'
p38
sg16
I700
sg17
g13
sg18
g13
sg19
S'/System/Library/Frameworks/Python.framework/Versions/2.7/Extras/lib/python/matplotlib/mpl-data/fonts/ttf/VeraMoBd.ttf'
p39
sg21
g22
sbag7
(g8
g9
NtRp40
(dp41
g12
g13
sg14
S'cmr10'
p42
sg16
I400
sg17
g13
sg18
g13
sg19
S'/System/Library/Frameworks/Python.framework/Versions/2.7/Extras/lib/python/matplotlib/mpl-data/fonts/ttf/cmr10.ttf'
p43
sg21
g22
sbag7
(g8
g9
NtRp44
(dp45
g12
g13
sg14
S'STIXGeneral'
p46
sg16
I400
sg17
g13
sg18
g13
sg19
S'/System/Library/Frameworks/Python.framework/Versions/2.7/Extras/lib/python/matplotlib/mpl-data/fonts/ttf/STIXGeneral.ttf'
p47
sg21
g22
sbag7
(g8
g9
NtRp48
(dp49
g12
g25
sg14
S'Bitstream Vera Sans Mono'
p50
sg16
I400
sg17
g13
sg18
g13
sg19
S'/System/Library/Frameworks/Python.framework/Versions/2.7/Extras/lib/python/matplotlib/mpl-data/fonts/ttf/VeraMoIt.ttf'
p51
sg21
g22
sbag7
(g8
g9
NtRp52
(dp53
g12
g13
sg14
S'Bitstream Vera Serif'
p54
sg16
I400
sg17
g13
sg18
g13
sg19
S'/System/Library/Frameworks/Python.framework/Versions/2.7/Extras/lib/python/matplotlib/mpl-data/fonts/ttf/VeraSe.ttf'
p55
sg21
g22
sbag7
(g8
g9
NtRp56
(dp57
g12
g13
sg14
S'STIXSizeFiveSym'
p58
sg16
I400
sg17
g13
sg18
g13
sg19
S'/System/Library/Frameworks/Python.framework/Versions/2.7/Extras/lib/python/matplotlib/mpl-data/fonts/ttf/STIXSizFiveSymReg.ttf'
p59
sg21
g22
sbag7
(g8
g9
NtRp60
(dp61
g12
g13
sg14
S'Bitstream Vera Sans Mono'
p62
sg16
I400
sg17
g13
sg18
g13
sg19
S'/System/Library/Frameworks/Python.framework/Versions/2.7/Extras/lib/python/matplotlib/mpl-data/fonts/ttf/VeraMono.ttf'
p63
sg21
g22
sbag7
(g8
g9
NtRp64
(dp65
g12
g25
sg14
S'Bitstream Vera Sans Mono'
p66
sg16
I700
sg17
g13
sg18
g13
sg19
S'/System/Library/Frameworks/Python.framework/Versions/2.7/Extras/lib/python/matplotlib/mpl-data/fonts/ttf/VeraMoBI.ttf'
p67
sg21
g22
sbag7
(g8
g9
NtRp68
(dp69
g12
g13
sg14
S'STIXGeneral'
p70
sg16
I700
sg17
g13
sg18
g13
sg19
S'/System/Library/Frameworks/Python.framework/Versions/2.7/Extras/lib/python/matplotlib/mpl-data/fonts/ttf/STIXGeneralBol.ttf'
p71
sg21
g22
sbag7
(g8
g9
NtRp72
(dp73
g12
S'italic'
p74
sg14
S'STIXGeneral'
p75
sg16
I400
sg17
g13
sg18
g13
sg19
S'/System/Library/Frameworks/Python.framework/Versions/2.7/Extras/lib/python/matplotlib/mpl-data/fonts/ttf/STIXGeneralItalic.ttf'
p76
sg21
g22
sbag7
(g8
g9
NtRp77
(dp78
g12
g13
sg14
S'STIXSizeFourSym'
p79
sg16
I400
sg17
g13
sg18
g13
sg19
S'/System/Library/Frameworks/Python.framework/Versions/2.7/Extras/lib/python/matplotlib/mpl-data/fonts/ttf/STIXSizFourSymReg.ttf'
p80
sg21
g22
sbag7
(g8
g9
NtRp81
(dp82
g12
g13
sg14
S'STIXSizeThreeSym'
p83
sg16
I700
sg17
g13
sg18
g13
sg19
S'/System/Library/Frameworks/Python.framework/Versions/2.7/Extras/lib/python/matplotlib/mpl-data/fonts/ttf/STIXSizThreeSymBol.ttf'
p84
sg21
g22
sbag7
(g8
g9
NtRp85
(dp86
g12
g13
sg14
S'STIXSizeOneSym'
p87
sg16
I700
sg17
g13
sg18
g13
sg19
S'/System/Library/Frameworks/Python.framework/Versions/2.7/Extras/lib/python/matplotlib/mpl-data/fonts/ttf/STIXSizOneSymBol.ttf'
p88
sg21
g22
sbag7
(g8
g9
NtRp89
(dp90
g12
g13
sg14
S'STIXSizeFourSym'
p91
sg16
I700
sg17
g13
sg18
g13
sg19
S'/System/Library/Frameworks/Python.framework/Versions/2.7/Extras/lib/python/matplotlib/mpl-data/fonts/ttf/STIXSizFourSymBol.ttf'
p92
sg21
g22
sbag7
(g8
g9
NtRp93
(dp94
g12
g13
sg14
S'Bitstream Vera Sans'
p95
sg16
I700
sg17
g13
sg18
g13
sg19
S'/System/Library/Frameworks/Python.framework/Versions/2.7/Extras/lib/python/matplotlib/mpl-data/fonts/ttf/VeraBd.ttf'
p96
sg21
g22
sbag7
(g8
g9
NtRp97
(dp98
g12
g13
sg14
S'cmsy10'
p99
sg16
I400
sg17
g13
sg18
g13
sg19
S'/System/Library/Frameworks/Python.framework/Versions/2.7/Extras/lib/python/matplotlib/mpl-data/fonts/ttf/cmsy10.ttf'
p100
sg21
g22
sbag7
(g8
g9
NtRp101
(dp102
g12
g13
sg14
S'STIXSizeTwoSym'
p103
sg16
I400
sg17
g13
sg18
g13
sg19
S'/System/Library/Frameworks/Python.framework/Versions/2.7/Extras/lib/python/matplotlib/mpl-data/fonts/ttf/STIXSizTwoSymReg.ttf'
p104
sg21
g22
sbag7
(g8
g9
NtRp105
(dp106
g12
g74
sg14
S'STIXNonUnicode'
p107
sg16
I700
sg17
g13
sg18
g13
sg19
S'/System/Library/Frameworks/Python.framework/Versions/2.7/Extras/lib/python/matplotlib/mpl-data/fonts/ttf/STIXNonUniBolIta.ttf'
p108
sg21
g22
sbag7
(g8
g9
NtRp109
(dp110
g12
g13
sg14
S'cmb10'
p111
sg16
I400
sg17
g13
sg18
g13
sg19
S'/System/Library/Frameworks/Python.framework/Versions/2.7/Extras/lib/python/matplotlib/mpl-data/fonts/ttf/cmb10.ttf'
p112
sg21
g22
sbag7
(g8
g9
NtRp113
(dp114
g12
g13
sg14
S'cmss10'
p115
sg16
I400
sg17
g13
sg18
g13
sg19
S'/System/Library/Frameworks/Python.framework/Versions/2.7/Extras/lib/python/matplotlib/mpl-data/fonts/ttf/cmss10.ttf'
p116
sg21
g22
sbag7
(g8
g9
NtRp117
(dp118
g12
g13
sg14
S'STIXSizeThreeSym'
p119
sg16
I400
sg17
g13
sg18
g13
sg19
S'/System/Library/Frameworks/Python.framework/Versions/2.7/Extras/lib/python/matplotlib/mpl-data/fonts/ttf/STIXSizThreeSymReg.ttf'
p120
sg21
g22
sbag7
(g8
g9
NtRp121
(dp122
g12
g13
sg14
S'STIXSizeOneSym'
p123
sg16
I400
sg17
g13
sg18
g13
sg19
S'/System/Library/Frameworks/Python.framework/Versions/2.7/Extras/lib/python/matplotlib/mpl-data/fonts/ttf/STIXSizOneSymReg.ttf'
p124
sg21
g22
sbag7
(g8
g9
NtRp125
(dp126
g12
g13
sg14
S'Bitstream Vera Sans'
p127
sg16
I400
sg17
g13
sg18
g13
sg19
S'/System/Library/Frameworks/Python.framework/Versions/2.7/Extras/lib/python/matplotlib/mpl-data/fonts/ttf/Vera.ttf'
p128
sg21
g22
sbag7
(g8
g9
NtRp129
(dp130
g12
g13
sg14
S'cmmi10'
p131
sg16
I400
sg17
g13
sg18
g13
sg19
S'/System/Library/Frameworks/Python.framework/Versions/2.7/Extras/lib/python/matplotlib/mpl-data/fonts/ttf/cmmi10.ttf'
p132
sg21
g22
sbag7
(g8
g9
NtRp133
(dp134
g12
g13
sg14
S'Bitstream Vera Serif'
p135
sg16
I700
sg17
g13
sg18
g13
sg19
S'/System/Library/Frameworks/Python.framework/Versions/2.7/Extras/lib/python/matplotlib/mpl-data/fonts/ttf/VeraSeBd.ttf'
p136
sg21
g22
sbag7
(g8
g9
NtRp137
(dp138
g12
g25
sg14
S'Bitstream Vera Sans'
p139
sg16
I400
sg17
g13
sg18
g13
sg19
S'/System/Library/Frameworks/Python.framework/Versions/2.7/Extras/lib/python/matplotlib/mpl-data/fonts/ttf/VeraIt.ttf'
p140
sg21
g22
sbag7
(g8
g9
NtRp141
(dp142
g12
g13
sg14
S'STIXSizeTwoSym'
p143
sg16
I700
sg17
g13
sg18
g13
sg19
S'/System/Library/Frameworks/Python.framework/Versions/2.7/Extras/lib/python/matplotlib/mpl-data/fonts/ttf/STIXSizTwoSymBol.ttf'
p144
sg21
g22
sbag7
(g8
g9
NtRp145
(dp146
g12
g74
sg14
S'STIXNonUnicode'
p147
sg16
I400
sg17
g13
sg18
g13
sg19
S'/System/Library/Frameworks/Python.framework/Versions/2.7/Extras/lib/python/matplotlib/mpl-data/fonts/ttf/STIXNonUniIta.ttf'
p148
sg21
g22
sbag7
(g8
g9
NtRp149
(dp150
g12
g13
sg14
S'cmtt10'
p151
sg16
I400
sg17
g13
sg18
g13
sg19
S'/System/Library/Frameworks/Python.framework/Versions/2.7/Extras/lib/python/matplotlib/mpl-data/fonts/ttf/cmtt10.ttf'
p152
sg21
g22
sbag7
(g8
g9
NtRp153
(dp154
g12
g74
sg14
S'STIXGeneral'
p155
sg16
I700
sg17
g13
sg18
g13
sg19
S'/System/Library/Frameworks/Python.framework/Versions/2.7/Extras/lib/python/matplotlib/mpl-data/fonts/ttf/STIXGeneralBolIta.ttf'
p156
sg21
g22
sbag7
(g8
g9
NtRp157
(dp158
g12
g74
sg14
S'Trebuchet MS'
p159
sg16
I400
sg17
g13
sg18
g13
sg19
S'/Library/Fonts/Trebuchet MS Italic.ttf'
p160
sg21
g22
sbag7
(g8
g9
NtRp161
(dp162
g12
g13
sg14
S'Mshtakan'
p163
sg16
I400
sg17
g13
sg18
g13
sg19
S'/Library/Fonts/MshtakanRegular.ttf'
p164
sg21
g22
sbag7
(g8
g9
NtRp165
(dp166
g12
g74
sg14
S'Myriad Pro'
p167
sg16
I400
sg17
S'condensed'
p168
sg18
g13
sg19
S'/Library/Fonts/MyriadPro-CondIt.otf'
p169
sg21
g22
sbag7
(g8
g9
NtRp170
(dp171
g12
g13
sg14
S'Serto Urhoy'
p172
sg16
I400
sg17
g13
sg18
g13
sg19
S'/usr/X11/lib/X11/fonts/OTF/SyrCOMUrhoy.otf'
p173
sg21
g22
sbag7
(g8
g9
NtRp174
(dp175
g12
g13
sg14
S'Poplar Std'
p176
sg16
I900
sg17
g13
sg18
g13
sg19
S'/Library/Fonts/PoplarStd.otf'
p177
sg21
g22
sbag7
(g8
g9
NtRp178
(dp179
g12
g13
sg14
S'Kozuka Gothic Pr6N'
p180
sg16
I400
sg17
g13
sg18
g13
sg19
S'/Library/Fonts/KozGoPr6N-ExtraLight.otf'
p181
sg21
g22
sbag7
(g8
g9
NtRp182
(dp183
g12
g74
sg14
S'Gill Sans MT'
p184
sg16
I400
sg17
g13
sg18
g13
sg19
S'/Library/Fonts/Microsoft/Gill Sans MT Italic.ttf'
p185
sg21
g22
sbag7
(g8
g9
NtRp186
(dp187
g12
g13
sg14
S'Times New Roman'
p188
sg16
I500
sg17
g13
sg18
g13
sg19
S'/Library/Fonts/Times New Roman.ttf'
p189
sg21
g22
sbag7
(g8
g9
NtRp190
(dp191
g12
g13
sg14
S'AppleMyungjo'
p192
sg16
I400
sg17
g13
sg18
g13
sg19
S'/Library/Fonts/AppleMyungjo.ttf'
p193
sg21
g22
sbag7
(g8
g9
NtRp194
(dp195
g12
g13
sg14
S'Mishafi Gold'
p196
sg16
I400
sg17
g13
sg18
g13
sg19
S'/Library/Fonts/Mishafi Gold.ttf'
p197
sg21
g22
sbag7
(g8
g9
NtRp198
(dp199
g12
g13
sg14
S'Osaka'
p200
sg16
I400
sg17
g13
sg18
g13
sg19
S'/Library/Fonts/Osaka.ttf'
p201
sg21
g22
sbag7
(g8
g9
NtRp202
(dp203
g12
g13
sg14
S'STIXSizeThreeSym'
p204
sg16
I700
sg17
g13
sg18
g13
sg19
S'/Library/Fonts/STIXSizThreeSymBol.otf'
p205
sg21
g22
sbag7
(g8
g9
NtRp206
(dp207
g12
g13
sg14
S'Symbol'
p208
sg16
I400
sg17
g13
sg18
g13
sg19
S'/System/Library/Fonts/Symbol.ttf'
p209
sg21
g22
sbag7
(g8
g9
NtRp210
(dp211
g12
g13
sg14
S'East Syriac Ctesiphon'
p212
sg16
I400
sg17
g13
sg18
g13
sg19
S'/usr/X11/lib/X11/fonts/OTF/SyrCOMCtesiphon.otf'
p213
sg21
g22
sbag7
(g8
g9
NtRp214
(dp215
g12
g13
sg14
S'Candara'
p216
sg16
I700
sg17
g13
sg18
g13
sg19
S'/Library/Fonts/Microsoft/Candara Bold.ttf'
p217
sg21
g22
sbag7
(g8
g9
NtRp218
(dp219
g12
g13
sg14
S'Tw Cen MT'
p220
sg16
I400
sg17
g13
sg18
g13
sg19
S'/Library/Fonts/Microsoft/Tw Cen MT.ttf'
p221
sg21
g22
sbag7
(g8
g9
NtRp222
(dp223
g12
g74
sg14
S'Myriad Pro'
p224
sg16
I400
sg17
g13
sg18
g13
sg19
S'/Library/Fonts/MyriadPro-It.otf'
p225
sg21
g22
sbag7
(g8
g9
NtRp226
(dp227
g12
g74
sg14
S'Minion Pro'
p228
sg16
I400
sg17
g13
sg18
g13
sg19
S'/Library/Fonts/MinionPro-It.otf'
p229
sg21
g22
sbag7
(g8
g9
NtRp230
(dp231
g12
g13
sg14
S'Luxi Serif'
p232
sg16
I400
sg17
g13
sg18
g13
sg19
S'/usr/X11R6/lib/X11/fonts/TTF/luxirr.ttf'
p233
sg21
g22
sbag7
(g8
g9
NtRp234
(dp235
g12
g13
sg14
S'Kozuka Gothic Pr6N'
p236
sg16
I400
sg17
g13
sg18
g13
sg19
S'/Library/Fonts/KozGoPr6N-Regular.otf'
p237
sg21
g22
sbag7
(g8
g9
NtRp238
(dp239
g12
g74
sg14
S'Arial'
p240
sg16
I700
sg17
g13
sg18
g13
sg19
S'/Library/Fonts/Arial Bold Italic.ttf'
p241
sg21
g22
sbag7
(g8
g9
NtRp242
(dp243
g12
g13
sg14
S'HeadLineA'
p244
sg16
I400
sg17
g13
sg18
g13
sg19
S'/Library/Fonts/HeadlineA.ttf'
p245
sg21
g22
sbag7
(g8
g9
NtRp246
(dp247
g12
g13
sg14
S'Tekton Pro'
p248
sg16
I700
sg17
g13
sg18
g13
sg19
S'/Library/Fonts/TektonPro-Bold.otf'
p249
sg21
g22
sbag7
(g8
g9
NtRp250
(dp251
g12
g13
sg14
S'Serto Batnan'
p252
sg16
I400
sg17
g13
sg18
g13
sg19
S'/usr/X11/lib/X11/fonts/OTF/SyrCOMBatnan.otf'
p253
sg21
g22
sbag7
(g8
g9
NtRp254
(dp255
g12
g13
sg14
S'Mshtakan'
p256
sg16
I700
sg17
g13
sg18
g13
sg19
S'/Library/Fonts/MshtakanBold.ttf'
p257
sg21
g22
sbag7
(g8
g9
NtRp258
(dp259
g12
g74
sg14
S'Myriad Arabic'
p260
sg16
I400
sg17
g13
sg18
g13
sg19
S'/Library/Fonts/MyriadArabic-It.otf'
p261
sg21
g22
sbag7
(g8
g9
NtRp262
(dp263
g12
g74
sg14
S'Nueva Std'
p264
sg16
I400
sg17
g13
sg18
g13
sg19
S'/Library/Fonts/NuevaStd-Italic.otf'
p265
sg21
g22
sbag7
(g8
g9
NtRp266
(dp267
g12
g13
sg14
S'Calibri'
p268
sg16
I200
sg17
g13
sg18
g13
sg19
S'/Library/Fonts/Microsoft/Calibril.ttf'
p269
sg21
g22
sbag7
(g8
g9
NtRp270
(dp271
g12
g13
sg14
S'Letter Gothic Std'
p272
sg16
I500
sg17
g13
sg18
g13
sg19
S'/Library/Fonts/LetterGothicStd.otf'
p273
sg21
g22
sbag7
(g8
g9
NtRp274
(dp275
g12
g13
sg14
S'STIXSizeFiveSym'
p276
sg16
I400
sg17
g13
sg18
g13
sg19
S'/Library/Fonts/STIXSizFiveSymReg.otf'
p277
sg21
g22
sbag7
(g8
g9
NtRp278
(dp279
g12
g13
sg14
S'Serto Urhoy'
p280
sg16
I700
sg17
g13
sg18
g13
sg19
S'/usr/X11/lib/X11/fonts/OTF/SyrCOMUrhoyBold.otf'
p281
sg21
g22
sbag7
(g8
g9
NtRp282
(dp283
g12
g13
sg14
S'Gurmukhi MT'
p284
sg16
I400
sg17
g13
sg18
g13
sg19
S'/Library/Fonts/Gurmukhi.ttf'
p285
sg21
g22
sbag7
(g8
g9
NtRp286
(dp287
g12
g13
sg14
S'YuGothic'
p288
sg16
I700
sg17
g13
sg18
g13
sg19
S'/Library/Fonts/Yu Gothic Bold.otf'
p289
sg21
g22
sbag7
(g8
g9
NtRp290
(dp291
g12
g13
sg14
S'Apple Color Emoji'
p292
sg16
I400
sg17
g13
sg18
g13
sg19
S'/System/Library/Fonts/Apple Color Emoji.ttf'
p293
sg21
g22
sbag7
(g8
g9
NtRp294
(dp295
g12
g74
sg14
S'Cambria'
p296
sg16
I400
sg17
g13
sg18
g13
sg19
S'/Library/Fonts/Microsoft/Cambria Italic.ttf'
p297
sg21
g22
sbag7
(g8
g9
NtRp298
(dp299
g12
g25
sg14
S'Tekton Pro'
p300
sg16
I700
sg17
g13
sg18
g13
sg19
S'/Library/Fonts/TektonPro-BoldObl.otf'
p301
sg21
g22
sbag7
(g8
g9
NtRp302
(dp303
g12
g13
sg14
S'East Syriac Adiabene'
p304
sg16
I400
sg17
g13
sg18
g13
sg19
S'/usr/X11/lib/X11/fonts/OTF/SyrCOMAdiabene.otf'
p305
sg21
g22
sbag7
(g8
g9
NtRp306
(dp307
g12
g74
sg14
S'UC Berkeley OS'
p308
sg16
I600
sg17
g13
sg18
g13
sg19
S'/Users/tony/Library/Fonts/UC Berkeley OS Demi Italic.otf'
p309
sg21
g22
sbag7
(g8
g9
NtRp310
(dp311
g12
g13
sg14
S'Adobe Myungjo Std'
p312
sg16
I400
sg17
g13
sg18
g13
sg19
S'/Library/Fonts/AdobeMyungjoStd-Medium.otf'
p313
sg21
g22
sbag7
(g8
g9
NtRp314
(dp315
g12
g13
sg14
S'Hiragino Maru Gothic Pro'
p316
sg16
I400
sg17
g13
sg18
g13
sg19
S'/Library/Fonts/\xe3\x83\x92\xe3\x83\xa9\xe3\x82\xad\xe3\x82\x99\xe3\x83\x8e\xe4\xb8\xb8\xe3\x82\xb3\xe3\x82\x99 Pro W4.otf'
p317
sg21
g22
sbag7
(g8
g9
NtRp318
(dp319
g12
g74
sg14
S'Perpetua'
p320
sg16
I700
sg17
g13
sg18
g13
sg19
S'/Library/Fonts/Microsoft/Perpetua Bold Italic.ttf'
p321
sg21
g22
sbag7
(g8
g9
NtRp322
(dp323
g12
g74
sg14
S'UC Berkeley OS'
p324
sg16
I900
sg17
g13
sg18
g13
sg19
S'/Users/tony/Library/Fonts/UC Berkeley OS Black Italic.otf'
p325
sg21
g22
sbag7
(g8
g9
NtRp326
(dp327
g12
g13
sg14
S'Adobe Gothic Std'
p328
sg16
I700
sg17
g13
sg18
g13
sg19
S'/Library/Fonts/AdobeGothicStd-Bold.otf'
p329
sg21
g22
sbag7
(g8
g9
NtRp330
(dp331
g12
g13
sg14
S'Estrangelo Talada'
p332
sg16
I400
sg17
g13
sg18
g13
sg19
S'/usr/X11/lib/X11/fonts/OTF/SyrCOMTalada.otf'
p333
sg21
g22
sbag7
(g8
g9
NtRp334
(dp335
g12
g13
sg14
S'Verdana'
p336
sg16
I700
sg17
g13
sg18
g13
sg19
S'/Library/Fonts/Microsoft/Verdana Bold.ttf'
p337
sg21
g22
sbag7
(g8
g9
NtRp338
(dp339
g12
g13
sg14
S'Myriad Pro'
p340
sg16
I700
sg17
g13
sg18
g13
sg19
S'/Library/Fonts/MyriadPro-Semibold.otf'
p341
sg21
g22
sbag7
(g8
g9
NtRp342
(dp343
g12
g13
sg14
S'Verdana'
p344
sg16
I400
sg17
g13
sg18
g13
sg19
S'/Library/Fonts/Microsoft/Verdana.ttf'
p345
sg21
g22
sbag7
(g8
g9
NtRp346
(dp347
g12
g13
sg14
S'Khmer Sangam MN'
p348
sg16
I400
sg17
g13
sg18
g13
sg19
S'/Library/Fonts/Khmer Sangam MN.ttf'
p349
sg21
g22
sbag7
(g8
g9
NtRp350
(dp351
g12
g13
sg14
S'PCMyungjo'
p352
sg16
I400
sg17
g13
sg18
g13
sg19
S'/Library/Fonts/PCmyoungjo.ttf'
p353
sg21
g22
sbag7
(g8
g9
NtRp354
(dp355
g12
g13
sg14
S'MingLiU_HKSCS'
p356
sg16
I400
sg17
g13
sg18
g13
sg19
S'/Library/Fonts/Microsoft/mingliu_hkscs.ttf'
p357
sg21
g22
sbag7
(g8
g9
NtRp358
(dp359
g12
g13
sg14
S'Kozuka Mincho Pr6N'
p360
sg16
I700
sg17
g13
sg18
g13
sg19
S'/Library/Fonts/KozMinPr6N-Bold.otf'
p361
sg21
g22
sbag7
(g8
g9
NtRp362
(dp363
g12
g74
sg14
S'Verdana'
p364
sg16
I700
sg17
g13
sg18
g13
sg19
S'/Library/Fonts/Verdana Bold Italic.ttf'
p365
sg21
g22
sbag7
(g8
g9
NtRp366
(dp367
g12
g13
sg14
S'Estrangelo Quenneshrin'
p368
sg16
I400
sg17
g13
sg18
g13
sg19
S'/usr/X11/lib/X11/fonts/OTF/SyrCOMQenNeshrin.otf'
p369
sg21
g22
sbag7
(g8
g9
NtRp370
(dp371
g12
g13
sg14
S'Serto Malankara'
p372
sg16
I400
sg17
g13
sg18
g13
sg19
S'/usr/X11/lib/X11/fonts/OTF/SyrCOMMalankara.otf'
p373
sg21
g22
sbag7
(g8
g9
NtRp374
(dp375
g12
g13
sg14
S'Estrangelo Edessa'
p376
sg16
I400
sg17
g13
sg18
g13
sg19
S'/usr/X11/lib/X11/fonts/OTF/SyrCOMEdessa.otf'
p377
sg21
g22
sbag7
(g8
g9
NtRp378
(dp379
g12
g13
sg14
S'Kokonor'
p380
sg16
I400
sg17
g13
sg18
g13
sg19
S'/Library/Fonts/Kokonor.ttf'
p381
sg21
g22
sbag7
(g8
g9
NtRp382
(dp383
g12
g13
sg14
S'Goha-Tibeb Zemen'
p384
sg16
I400
sg17
g13
sg18
g13
sg19
S'/usr/X11/lib/X11/fonts/OTF/GohaTibebZemen.otf'
p385
sg21
g22
sbag7
(g8
g9
NtRp386
(dp387
g12
g74
sg14
S'Adobe Devanagari'
p388
sg16
I700
sg17
g13
sg18
g13
sg19
S'/Library/Fonts/AdobeDevanagari-BoldItalic.otf'
p389
sg21
g22
sbag7
(g8
g9
NtRp390
(dp391
g12
g13
sg14
S'Apple Braille'
p392
sg16
I400
sg17
g13
sg18
g13
sg19
S'/System/Library/Fonts/Apple Braille.ttf'
p393
sg21
g22
sbag7
(g8
g9
NtRp394
(dp395
g12
g13
sg14
S'Hiragino Mincho Pro'
p396
sg16
I700
sg17
g13
sg18
g13
sg19
S'/Library/Fonts/\xe3\x83\x92\xe3\x83\xa9\xe3\x82\xad\xe3\x82\x99\xe3\x83\x8e\xe6\x98\x8e\xe6\x9c\x9d Pro W6.otf'
p397
sg21
g22
sbag7
(g8
g9
NtRp398
(dp399
g12
g13
sg14
S'Kailasa'
p400
sg16
I400
sg17
g13
sg18
g13
sg19
S'/Library/Fonts/Kailasa.ttf'
p401
sg21
g22
sbag7
(g8
g9
NtRp402
(dp403
g12
g74
sg14
S'STIXNonUnicode'
p404
sg16
I400
sg17
g13
sg18
g13
sg19
S'/Library/Fonts/STIXNonUniIta.otf'
p405
sg21
g22
sbag7
(g8
g9
NtRp406
(dp407
g12
g13
sg14
S'MS Mincho'
p408
sg16
I400
sg17
g13
sg18
g13
sg19
S'/Library/Fonts/Microsoft/MS Mincho.ttf'
p409
sg21
g22
sbag7
(g8
g9
NtRp410
(dp411
g12
g13
sg14
S'Tekton Pro'
p412
sg16
I700
sg17
g13
sg18
g13
sg19
S'/Library/Fonts/TektonPro-BoldExt.otf'
p413
sg21
g22
sbag7
(g8
g9
NtRp414
(dp415
g12
g74
sg14
S'Chaparral Pro'
p416
sg16
I400
sg17
g13
sg18
g13
sg19
S'/Library/Fonts/ChaparralPro-Italic.otf'
p417
sg21
g22
sbag7
(g8
g9
NtRp418
(dp419
g12
g13
sg14
S'Comic Sans MS'
p420
sg16
I700
sg17
g13
sg18
g13
sg19
S'/Library/Fonts/Comic Sans MS Bold.ttf'
p421
sg21
g22
sbag7
(g8
g9
NtRp422
(dp423
g12
g13
sg14
S'Luxi Sans'
p424
sg16
I400
sg17
g13
sg18
g13
sg19
S'/usr/X11/lib/X11/fonts/TTF/luxisr.ttf'
p425
sg21
g22
sbag7
(g8
g9
NtRp426
(dp427
g12
g74
sg14
S'Adobe Garamond Pro'
p428
sg16
I700
sg17
g13
sg18
g13
sg19
S'/Library/Fonts/AGaramondPro-BoldItalic.otf'
p429
sg21
g22
sbag7
(g8
g9
NtRp430
(dp431
g12
g13
sg14
S'Apple SD Gothic Neo'
p432
sg16
I700
sg17
g13
sg18
g13
sg19
S'/Library/Fonts/AppleSDGothicNeo-SemiBold.otf'
p433
sg21
g22
sbag7
(g8
g9
NtRp434
(dp435
g12
g13
sg14
S'STIXNonUnicode'
p436
sg16
I700
sg17
g13
sg18
g13
sg19
S'/Library/Fonts/STIXNonUniBol.otf'
p437
sg21
g22
sbag7
(g8
g9
NtRp438
(dp439
g12
g13
sg14
S'Webdings'
p440
sg16
I400
sg17
g13
sg18
g13
sg19
S'/Library/Fonts/Webdings.ttf'
p441
sg21
g22
sbag7
(g8
g9
NtRp442
(dp443
g12
g13
sg14
S'Apple Braille'
p444
sg16
I400
sg17
g13
sg18
g13
sg19
S'/System/Library/Fonts/Apple Braille Pinpoint 6 Dot.ttf'
p445
sg21
g22
sbag7
(g8
g9
NtRp446
(dp447
g12
g13
sg14
S'Kozuka Mincho Pr6N'
p448
sg16
I700
sg17
g13
sg18
g13
sg19
S'/Library/Fonts/KozMinPr6N-Heavy.otf'
p449
sg21
g22
sbag7
(g8
g9
NtRp450
(dp451
g12
g13
sg14
S'MingLiU_HKSCS-ExtB'
p452
sg16
I400
sg17
g13
sg18
g13
sg19
S'/Library/Fonts/Microsoft/MingLiU_HKSCS-ExtB.ttf'
p453
sg21
g22
sbag7
(g8
g9
NtRp454
(dp455
g12
g13
sg14
S'Kozuka Gothic Pro'
p456
sg16
I700
sg17
g13
sg18
g13
sg19
S'/Library/Fonts/KozGoPro-Heavy.otf'
p457
sg21
g22
sbag7
(g8
g9
NtRp458
(dp459
g12
g74
sg14
S'Franklin Gothic Book'
p460
sg16
I400
sg17
g13
sg18
g13
sg19
S'/Library/Fonts/Microsoft/Franklin Gothic Book Italic.ttf'
p461
sg21
g22
sbag7
(g8
g9
NtRp462
(dp463
g12
g74
sg14
S'UC Berkeley OS'
p464
sg16
I400
sg17
g13
sg18
g13
sg19
S'/Users/tony/Library/Fonts/UC Berkeley OS Italic.otf'
p465
sg21
g22
sbag7
(g8
g9
NtRp466
(dp467
g12
g74
sg14
S'Palatino Linotype'
p468
sg16
I700
sg17
g13
sg18
g13
sg19
S'/Library/Fonts/Microsoft/Palatino Linotype Bold Italic.ttf'
p469
sg21
g22
sbag7
(g8
g9
NtRp470
(dp471
g12
g13
sg14
S'STIXIntegralsUpSm'
p472
sg16
I400
sg17
g13
sg18
g13
sg19
S'/Library/Fonts/STIXIntUpSmReg.otf'
p473
sg21
g22
sbag7
(g8
g9
NtRp474
(dp475
g12
g13
sg14
S'Meiryo'
p476
sg16
I400
sg17
g13
sg18
g13
sg19
S'/Library/Fonts/Microsoft/Meiryo.ttf'
p477
sg21
g22
sbag7
(g8
g9
NtRp478
(dp479
g12
g74
sg14
S'Minion Pro'
p480
sg16
I500
sg17
g13
sg18
g13
sg19
S'/Library/Fonts/MinionPro-MediumIt.otf'
p481
sg21
g22
sbag7
(g8
g9
NtRp482
(dp483
g12
g13
sg14
S'Kozuka Mincho Pro'
p484
sg16
I400
sg17
g13
sg18
g13
sg19
S'/Library/Fonts/KozMinPro-Regular.otf'
p485
sg21
g22
sbag7
(g8
g9
NtRp486
(dp487
g12
g74
sg14
S'Courier New'
p488
sg16
I400
sg17
g13
sg18
g13
sg19
S'/Library/Fonts/Courier New Italic.ttf'
p489
sg21
g22
sbag7
(g8
g9
NtRp490
(dp491
g12
g13
sg14
S'Arial Black'
p492
sg16
I900
sg17
g13
sg18
g13
sg19
S'/Library/Fonts/Arial Black.ttf'
p493
sg21
g22
sbag7
(g8
g9
NtRp494
(dp495
g12
g74
sg14
S'Myriad Pro'
p496
sg16
I700
sg17
g13
sg18
g13
sg19
S'/Library/Fonts/MyriadPro-SemiboldIt.otf'
p497
sg21
g22
sbag7
(g8
g9
NtRp498
(dp499
g12
g74
sg14
S'STIXGeneral'
p500
sg16
I400
sg17
g13
sg18
g13
sg19
S'/Library/Fonts/STIXGeneralItalic.otf'
p501
sg21
g22
sbag7
(g8
g9
NtRp502
(dp503
g12
g74
sg14
S'Myriad Pro'
p504
sg16
I700
sg17
g168
sg18
g13
sg19
S'/Library/Fonts/MyriadPro-BoldCondIt.otf'
p505
sg21
g22
sbag7
(g8
g9
NtRp506
(dp507
g12
g13
sg14
S'STIXSizeFourSym'
p508
sg16
I400
sg17
g13
sg18
g13
sg19
S'/Library/Fonts/STIXSizFourSymReg.otf'
p509
sg21
g22
sbag7
(g8
g9
NtRp510
(dp511
g12
g13
sg14
S'Adobe Kaiti Std'
p512
sg16
I400
sg17
g13
sg18
g13
sg19
S'/Library/Fonts/AdobeKaitiStd-Regular.otf'
p513
sg21
g22
sbag7
(g8
g9
NtRp514
(dp515
g12
g13
sg14
S'Microsoft Yi Baiti'
p516
sg16
I400
sg17
g13
sg18
g13
sg19
S'/Library/Fonts/Microsoft/msyi.ttf'
p517
sg21
g22
sbag7
(g8
g9
NtRp518
(dp519
g12
g13
sg14
S'Nueva Std'
p520
sg16
I400
sg17
g168
sg18
g13
sg19
S'/Library/Fonts/NuevaStd-Cond.otf'
p521
sg21
g22
sbag7
(g8
g9
NtRp522
(dp523
g12
g13
sg14
S'Wingdings 3'
p524
sg16
I400
sg17
g13
sg18
g13
sg19
S'/Library/Fonts/Wingdings 3.ttf'
p525
sg21
g22
sbag7
(g8
g9
NtRp526
(dp527
g12
g13
sg14
S'Consolas'
p528
sg16
I400
sg17
g13
sg18
g13
sg19
S'/Library/Fonts/Microsoft/Consolas.ttf'
p529
sg21
g22
sbag7
(g8
g9
NtRp530
(dp531
g12
g74
sg14
S'Perpetua'
p532
sg16
I400
sg17
g13
sg18
g13
sg19
S'/Library/Fonts/Microsoft/Perpetua Italic.ttf'
p533
sg21
g22
sbag7
(g8
g9
NtRp534
(dp535
g12
g13
sg14
S'Comic Sans MS'
p536
sg16
I400
sg17
g13
sg18
g13
sg19
S'/Library/Fonts/Comic Sans MS.ttf'
p537
sg21
g22
sbag7
(g8
g9
NtRp538
(dp539
g12
g13
sg14
S'Kozuka Mincho Pr6N'
p540
sg16
I400
sg17
g13
sg18
g13
sg19
S'/Library/Fonts/KozMinPr6N-Light.otf'
p541
sg21
g22
sbag7
(g8
g9
NtRp542
(dp543
g12
g13
sg14
S'PMingLiU'
p544
sg16
I400
sg17
g13
sg18
g13
sg19
S'/Library/Fonts/Microsoft/PMingLiU.ttf'
p545
sg21
g22
sbag7
(g8
g9
NtRp546
(dp547
g12
g13
sg14
S'Arial'
p548
sg16
I400
sg17
g13
sg18
g13
sg19
S'/Library/Fonts/Microsoft/Arial.ttf'
p549
sg21
g22
sbag7
(g8
g9
NtRp550
(dp551
g12
g13
sg14
S'STIXSizeFourSym'
p552
sg16
I700
sg17
g13
sg18
g13
sg19
S'/Library/Fonts/STIXSizFourSymBol.otf'
p553
sg21
g22
sbag7
(g8
g9
NtRp554
(dp555
g12
g13
sg14
S'Kozuka Gothic Pr6N'
p556
sg16
I400
sg17
g13
sg18
g13
sg19
S'/Library/Fonts/KozGoPr6N-Medium.otf'
p557
sg21
g22
sbag7
(g8
g9
NtRp558
(dp559
g12
g13
sg14
S'Marlett'
p560
sg16
I400
sg17
g13
sg18
g13
sg19
S'/Library/Fonts/Microsoft/Marlett.ttf'
p561
sg21
g22
sbag7
(g8
g9
NtRp562
(dp563
g12
g13
sg14
S'Calibri'
p564
sg16
I700
sg17
g13
sg18
g13
sg19
S'/Library/Fonts/Microsoft/Calibri Bold.ttf'
p565
sg21
g22
sbag7
(g8
g9
NtRp566
(dp567
g12
g13
sg14
S'Yuppy SC'
p568
sg16
I400
sg17
g13
sg18
g13
sg19
S'/Library/Fonts/YuppySC-Regular.otf'
p569
sg21
g22
sbag7
(g8
g9
NtRp570
(dp571
g12
g13
sg14
S'Minion Pro'
p572
sg16
I500
sg17
g13
sg18
g13
sg19
S'/Library/Fonts/MinionPro-Medium.otf'
p573
sg21
g22
sbag7
(g8
g9
NtRp574
(dp575
g12
g13
sg14
S'Wingdings'
p576
sg16
I400
sg17
g13
sg18
g13
sg19
S'/Library/Fonts/Wingdings.ttf'
p577
sg21
g22
sbag7
(g8
g9
NtRp578
(dp579
g12
g13
sg14
S'Impact'
p580
sg16
I400
sg17
g13
sg18
g13
sg19
S'/Library/Fonts/Impact.ttf'
p581
sg21
g22
sbag7
(g8
g9
NtRp582
(dp583
g12
g13
sg14
S'Tahoma'
p584
sg16
I700
sg17
g13
sg18
g13
sg19
S'/Library/Fonts/Tahoma Bold.ttf'
p585
sg21
g22
sbag7
(g8
g9
NtRp586
(dp587
g12
g74
sg14
S'Georgia'
p588
sg16
I700
sg17
g13
sg18
g13
sg19
S'/Library/Fonts/Georgia Bold Italic.ttf'
p589
sg21
g22
sbag7
(g8
g9
NtRp590
(dp591
g12
g13
sg14
S'Tekton Pro'
p592
sg16
I700
sg17
g168
sg18
g13
sg19
S'/Library/Fonts/TektonPro-BoldCond.otf'
p593
sg21
g22
sbag7
(g8
g9
NtRp594
(dp595
g12
g74
sg14
S'Myriad Arabic'
p596
sg16
I700
sg17
g13
sg18
g13
sg19
S'/Library/Fonts/MyriadArabic-BoldIt.otf'
p597
sg21
g22
sbag7
(g8
g9
NtRp598
(dp599
g12
g25
sg14
S'Luxi Mono'
p600
sg16
I700
sg17
g13
sg18
g13
sg19
S'/usr/X11/lib/X11/fonts/TTF/luximbi.ttf'
p601
sg21
g22
sbag7
(g8
g9
NtRp602
(dp603
g12
g13
sg14
S'Hoefler Text'
p604
sg16
I400
sg17
g13
sg18
g13
sg19
S'/Library/Fonts/Hoefler Text Ornaments.ttf'
p605
sg21
g22
sbag7
(g8
g9
NtRp606
(dp607
g12
g74
sg14
S'Chaparral Pro'
p608
sg16
I200
sg17
g13
sg18
g13
sg19
S'/Library/Fonts/ChaparralPro-LightIt.otf'
p609
sg21
g22
sbag7
(g8
g9
NtRp610
(dp611
g12
g74
sg14
S'Adobe Arabic'
p612
sg16
I400
sg17
g13
sg18
g13
sg19
S'/Library/Fonts/AdobeArabic-Italic.otf'
p613
sg21
g22
sbag7
(g8
g9
NtRp614
(dp615
g12
g13
sg14
S'Hiragino Mincho ProN'
p616
sg16
I700
sg17
g13
sg18
g13
sg19
S'/System/Library/Fonts/\xe3\x83\x92\xe3\x83\xa9\xe3\x82\xad\xe3\x82\x99\xe3\x83\x8e\xe6\x98\x8e\xe6\x9c\x9d ProN W6.otf'
p617
sg21
g22
sbag7
(g8
g9
NtRp618
(dp619
g12
g13
sg14
S'Rosewood Std'
p620
sg16
I400
sg17
g13
sg18
g13
sg19
S'/Library/Fonts/RosewoodStd-Regular.otf'
p621
sg21
g22
sbag7
(g8
g9
NtRp622
(dp623
g12
g13
sg14
S'Adobe Arabic'
p624
sg16
I700
sg17
g13
sg18
g13
sg19
S'/Library/Fonts/AdobeArabic-Bold.otf'
p625
sg21
g22
sbag7
(g8
g9
NtRp626
(dp627
g12
g13
sg14
S'PilGi'
p628
sg16
I400
sg17
g13
sg18
g13
sg19
S'/Library/Fonts/Pilgiche.ttf'
p629
sg21
g22
sbag7
(g8
g9
NtRp630
(dp631
g12
g13
sg14
S'Gill Sans MT'
p632
sg16
I400
sg17
g13
sg18
g13
sg19
S'/Library/Fonts/Microsoft/Gill Sans MT.ttf'
p633
sg21
g22
sbag7
(g8
g9
NtRp634
(dp635
g12
g13
sg14
S'Myriad Arabic'
p636
sg16
I400
sg17
g13
sg18
g13
sg19
S'/Library/Fonts/MyriadArabic-Regular.otf'
p637
sg21
g22
sbag7
(g8
g9
NtRp638
(dp639
g12
g13
sg14
S'Constantia'
p640
sg16
I400
sg17
g13
sg18
g13
sg19
S'/Library/Fonts/Microsoft/Constantia.ttf'
p641
sg21
g22
sbag7
(g8
g9
NtRp642
(dp643
g12
g74
sg14
S'Verdana'
p644
sg16
I400
sg17
g13
sg18
g13
sg19
S'/Library/Fonts/Microsoft/Verdana Italic.ttf'
p645
sg21
g22
sbag7
(g8
g9
NtRp646
(dp647
g12
g13
sg14
S'YuGothic'
p648
sg16
I400
sg17
g13
sg18
g13
sg19
S'/Library/Fonts/Yu Gothic Medium.otf'
p649
sg21
g22
sbag7
(g8
g9
NtRp650
(dp651
g12
g13
sg14
S'Gujarati MT'
p652
sg16
I700
sg17
g13
sg18
g13
sg19
S'/Library/Fonts/GujaratiMTBold.ttf'
p653
sg21
g22
sbag7
(g8
g9
NtRp654
(dp655
g12
g74
sg14
S'Letter Gothic Std'
p656
sg16
I700
sg17
g13
sg18
g13
sg19
S'/Library/Fonts/LetterGothicStd-BoldSlanted.otf'
p657
sg21
g22
sbag7
(g8
g9
NtRp658
(dp659
g12
g13
sg14
S'Luxi Mono'
p660
sg16
I700
sg17
g13
sg18
g13
sg19
S'/usr/X11/lib/X11/fonts/TTF/luximb.ttf'
p661
sg21
g22
sbag7
(g8
g9
NtRp662
(dp663
g12
g74
sg14
S'Nueva Std'
p664
sg16
I400
sg17
g168
sg18
g13
sg19
S'/Library/Fonts/NuevaStd-CondItalic.otf'
p665
sg21
g22
sbag7
(g8
g9
NtRp666
(dp667
g12
g74
sg14
S'Arial'
p668
sg16
I400
sg17
g13
sg18
g13
sg19
S'/Library/Fonts/Microsoft/Arial Italic.ttf'
p669
sg21
g22
sbag7
(g8
g9
NtRp670
(dp671
g12
g25
sg14
S'Luxi Sans'
p672
sg16
I400
sg17
g13
sg18
g13
sg19
S'/usr/X11/lib/X11/fonts/TTF/luxisri.ttf'
p673
sg21
g22
sbag7
(g8
g9
NtRp674
(dp675
g12
g13
sg14
S'Zapf Dingbats'
p676
sg16
I400
sg17
g13
sg18
g13
sg19
S'/System/Library/Fonts/ZapfDingbats.ttf'
p677
sg21
g22
sbag7
(g8
g9
NtRp678
(dp679
g12
g74
sg14
S'Calibri'
p680
sg16
I700
sg17
g13
sg18
g13
sg19
S'/Library/Fonts/Microsoft/Calibri Bold Italic.ttf'
p681
sg21
g22
sbag7
(g8
g9
NtRp682
(dp683
g12
g74
sg14
S'Corbel'
p684
sg16
I700
sg17
g13
sg18
g13
sg19
S'/Library/Fonts/Microsoft/Corbel Bold Italic.ttf'
p685
sg21
g22
sbag7
(g8
g9
NtRp686
(dp687
g12
g13
sg14
S'Adobe Garamond Pro'
p688
sg16
I700
sg17
g13
sg18
g13
sg19
S'/Library/Fonts/AGaramondPro-Bold.otf'
p689
sg21
g22
sbag7
(g8
g9
NtRp690
(dp691
g12
g13
sg14
S'Stencil Std'
p692
sg16
I700
sg17
g13
sg18
g13
sg19
S'/Library/Fonts/StencilStd.otf'
p693
sg21
g22
sbag7
(g8
g9
NtRp694
(dp695
g12
g13
sg14
S'Luminari'
p696
sg16
I400
sg17
g13
sg18
g13
sg19
S'/Library/Fonts/Luminari.ttf'
p697
sg21
g22
sbag7
(g8
g9
NtRp698
(dp699
g12
g13
sg14
S'Myriad Pro'
p700
sg16
I400
sg17
g13
sg18
g13
sg19
S'/Library/Fonts/MyriadPro-Regular.otf'
p701
sg21
g22
sbag7
(g8
g9
NtRp702
(dp703
g12
g13
sg14
S'Myriad Pro'
p704
sg16
I400
sg17
g168
sg18
g13
sg19
S'/Library/Fonts/MyriadPro-Cond.otf'
p705
sg21
g22
sbag7
(g8
g9
NtRp706
(dp707
g12
g74
sg14
S'Trebuchet MS'
p708
sg16
I700
sg17
g13
sg18
g13
sg19
S'/Library/Fonts/Trebuchet MS Bold Italic.ttf'
p709
sg21
g22
sbag7
(g8
g9
NtRp710
(dp711
g12
g13
sg14
S'STIXIntegralsSm'
p712
sg16
I700
sg17
g13
sg18
g13
sg19
S'/Library/Fonts/STIXIntSmBol.otf'
p713
sg21
g22
sbag7
(g8
g9
NtRp714
(dp715
g12
g13
sg14
S'Adobe Ming Std'
p716
sg16
I400
sg17
g13
sg18
g13
sg19
S'/Library/Fonts/AdobeMingStd-Light.otf'
p717
sg21
g22
sbag7
(g8
g9
NtRp718
(dp719
g12
g13
sg14
S'Meiryo'
p720
sg16
I700
sg17
g13
sg18
g13
sg19
S'/Library/Fonts/Microsoft/Meiryo Bold.ttf'
p721
sg21
g22
sbag7
(g8
g9
NtRp722
(dp723
g12
g13
sg14
S'Bradley Hand'
p724
sg16
I700
sg17
g13
sg18
g13
sg19
S'/Library/Fonts/Bradley Hand Bold.ttf'
p725
sg21
g22
sbag7
(g8
g9
NtRp726
(dp727
g12
g13
sg14
S'Cooper Std'
p728
sg16
I900
sg17
g13
sg18
g13
sg19
S'/Library/Fonts/CooperBlackStd.otf'
p729
sg21
g22
sbag7
(g8
g9
NtRp730
(dp731
g12
g13
sg14
S'Kozuka Gothic Pro'
p732
sg16
I400
sg17
g13
sg18
g13
sg19
S'/Library/Fonts/KozGoPro-ExtraLight.otf'
p733
sg21
g22
sbag7
(g8
g9
NtRp734
(dp735
g12
g74
sg14
S'Tw Cen MT'
p736
sg16
I400
sg17
g13
sg18
g13
sg19
S'/Library/Fonts/Microsoft/Tw Cen MT Italic.ttf'
p737
sg21
g22
sbag7
(g8
g9
NtRp738
(dp739
g12
g13
sg14
S'Bookshelf Symbol 7'
p740
sg16
I400
sg17
g13
sg18
g13
sg19
S'/Library/Fonts/Microsoft/Bookshelf Symbol 7.ttf'
p741
sg21
g22
sbag7
(g8
g9
NtRp742
(dp743
g12
g74
sg14
S'Chaparral Pro'
p744
sg16
I700
sg17
g13
sg18
g13
sg19
S'/Library/Fonts/ChaparralPro-BoldIt.otf'
p745
sg21
g22
sbag7
(g8
g9
NtRp746
(dp747
g12
g13
sg14
S'Consolas'
p748
sg16
I700
sg17
g13
sg18
g13
sg19
S'/Library/Fonts/Microsoft/Consolas Bold.ttf'
p749
sg21
g22
sbag7
(g8
g9
NtRp750
(dp751
g12
g13
sg14
S'Adobe Song Std'
p752
sg16
I400
sg17
g13
sg18
g13
sg19
S'/Library/Fonts/AdobeSongStd-Light.otf'
p753
sg21
g22
sbag7
(g8
g9
NtRp754
(dp755
g12
g13
sg14
S'Hiragino Sans GB'
p756
sg16
I400
sg17
g13
sg18
g13
sg19
S'/Library/Fonts/Hiragino Sans GB W3.otf'
p757
sg21
g22
sbag7
(g8
g9
NtRp758
(dp759
g12
g13
sg14
S'Luxi Serif'
p760
sg16
I700
sg17
g13
sg18
g13
sg19
S'/usr/X11R6/lib/X11/fonts/TTF/luxirb.ttf'
p761
sg21
g22
sbag7
(g8
g9
NtRp762
(dp763
g12
g74
sg14
S'Adobe Hebrew'
p764
sg16
I700
sg17
g13
sg18
g13
sg19
S'/Library/Fonts/AdobeHebrew-BoldItalic.otf'
p765
sg21
g22
sbag7
(g8
g9
NtRp766
(dp767
g12
g13
sg14
S'Farisi'
p768
sg16
I400
sg17
g13
sg18
g13
sg19
S'/Library/Fonts/Farisi.ttf'
p769
sg21
g22
sbag7
(g8
g9
NtRp770
(dp771
g12
g13
sg14
S'Luxi Sans'
p772
sg16
I700
sg17
g13
sg18
g13
sg19
S'/usr/X11/lib/X11/fonts/TTF/luxisb.ttf'
p773
sg21
g22
sbag7
(g8
g9
NtRp774
(dp775
g12
g13
sg14
S'STIXNonUnicode'
p776
sg16
I400
sg17
g13
sg18
g13
sg19
S'/Library/Fonts/STIXNonUni.otf'
p777
sg21
g22
sbag7
(g8
g9
NtRp778
(dp779
g12
g13
sg14
S'Bodoni 72 Smallcaps'
p780
sg16
I400
sg17
g13
sg18
g13
sg19
S'/Library/Fonts/Bodoni 72 Smallcaps Book.ttf'
p781
sg21
g22
sbag7
(g8
g9
NtRp782
(dp783
g12
g13
sg14
S'Trebuchet MS'
p784
sg16
I700
sg17
g13
sg18
g13
sg19
S'/Library/Fonts/Trebuchet MS Bold.ttf'
p785
sg21
g22
sbag7
(g8
g9
NtRp786
(dp787
g12
g13
sg14
S'LiSong Pro'
p788
sg16
I400
sg17
g13
sg18
g13
sg19
S'/Library/Fonts/\xe5\x84\xb7\xe5\xae\x8b Pro.ttf'
p789
sg21
g22
sbag7
(g8
g9
NtRp790
(dp791
g12
g74
sg14
S'STIXNonUnicode'
p792
sg16
I700
sg17
g13
sg18
g13
sg19
S'/Library/Fonts/STIXNonUniBolIta.otf'
p793
sg21
g22
sbag7
(g8
g9
NtRp794
(dp795
g12
g13
sg14
S'Adobe Devanagari'
p796
sg16
I700
sg17
g13
sg18
g13
sg19
S'/Library/Fonts/AdobeDevanagari-Bold.otf'
p797
sg21
g22
sbag7
(g8
g9
NtRp798
(dp799
g12
g13
sg14
S'Brush Script Std'
p800
sg16
I500
sg17
g13
sg18
g13
sg19
S'/Library/Fonts/BrushScriptStd.otf'
p801
sg21
g22
sbag7
(g8
g9
NtRp802
(dp803
g12
g13
sg14
S'Wawati SC'
p804
sg16
I400
sg17
g13
sg18
g13
sg19
S'/Library/Fonts/WawaSC-Regular.otf'
p805
sg21
g22
sbag7
(g8
g9
NtRp806
(dp807
g12
g13
sg14
S'SimHei'
p808
sg16
I400
sg17
g13
sg18
g13
sg19
S'/Library/Fonts/Microsoft/SimHei.ttf'
p809
sg21
g22
sbag7
(g8
g9
NtRp810
(dp811
g12
g25
sg14
S'Luxi Serif'
p812
sg16
I700
sg17
g13
sg18
g13
sg19
S'/usr/X11R6/lib/X11/fonts/TTF/luxirbi.ttf'
p813
sg21
g22
sbag7
(g8
g9
NtRp814
(dp815
g12
g13
sg14
S'Apple SD Gothic Neo'
p816
sg16
I200
sg17
g13
sg18
g13
sg19
S'/Library/Fonts/AppleSDGothicNeo-Light.otf'
p817
sg21
g22
sbag7
(g8
g9
NtRp818
(dp819
g12
g13
sg14
S'Adobe Caslon Pro'
p820
sg16
I700
sg17
g13
sg18
g13
sg19
S'/Library/Fonts/ACaslonPro-Bold.otf'
p821
sg21
g22
sbag7
(g8
g9
NtRp822
(dp823
g12
g13
sg14
S'STIXIntegralsSm'
p824
sg16
I400
sg17
g13
sg18
g13
sg19
S'/Library/Fonts/STIXIntSmReg.otf'
p825
sg21
g22
sbag7
(g8
g9
NtRp826
(dp827
g12
g13
sg14
S'Myriad Pro'
p828
sg16
I700
sg17
g168
sg18
g13
sg19
S'/Library/Fonts/MyriadPro-BoldCond.otf'
p829
sg21
g22
sbag7
(g8
g9
NtRp830
(dp831
g12
g74
sg14
S'Adobe Caslon Pro'
p832
sg16
I400
sg17
g13
sg18
g13
sg19
S'/Library/Fonts/ACaslonPro-Italic.otf'
p833
sg21
g22
sbag7
(g8
g9
NtRp834
(dp835
g12
g13
sg14
S'Georgia'
p836
sg16
I700
sg17
g13
sg18
g13
sg19
S'/Library/Fonts/Georgia Bold.ttf'
p837
sg21
g22
sbag7
(g8
g9
NtRp838
(dp839
g12
g13
sg14
S'Chalkduster'
p840
sg16
I400
sg17
g13
sg18
g13
sg19
S'/Library/Fonts/Chalkduster.ttf'
p841
sg21
g22
sbag7
(g8
g9
NtRp842
(dp843
g12
g13
sg14
S'UC Berkeley OS'
p844
sg16
I600
sg17
g13
sg18
g13
sg19
S'/Users/tony/Library/Fonts/UC Berkeley OS Demi.otf'
p845
sg21
g22
sbag7
(g8
g9
NtRp846
(dp847
g12
g13
sg14
S'Estrangelo Antioch'
p848
sg16
I400
sg17
g13
sg18
g13
sg19
S'/usr/X11/lib/X11/fonts/OTF/SyrCOMAntioch.otf'
p849
sg21
g22
sbag7
(g8
g9
NtRp850
(dp851
g12
g13
sg14
S'Weibei TC'
p852
sg16
I700
sg17
g13
sg18
g13
sg19
S'/Library/Fonts/WeibeiTC-Bold.otf'
p853
sg21
g22
sbag7
(g8
g9
NtRp854
(dp855
g12
g13
sg14
S'Serto Batnan'
p856
sg16
I700
sg17
g13
sg18
g13
sg19
S'/usr/X11/lib/X11/fonts/OTF/SyrCOMBatnanBold.otf'
p857
sg21
g22
sbag7
(g8
g9
NtRp858
(dp859
g12
g74
sg14
S'Minion Pro'
p860
sg16
I700
sg17
g13
sg18
g13
sg19
S'/Library/Fonts/MinionPro-BoldIt.otf'
p861
sg21
g22
sbag7
(g8
g9
NtRp862
(dp863
g12
g13
sg14
S'UC Berkeley OS'
p864
sg16
I400
sg17
g13
sg18
g13
sg19
S'/Users/tony/Library/Fonts/UC Berkeley OS Titling.otf'
p865
sg21
g22
sbag7
(g8
g9
NtRp866
(dp867
g12
g13
sg14
S'Serto Jerusalem'
p868
sg16
I700
sg17
g13
sg18
g13
sg19
S'/usr/X11/lib/X11/fonts/OTF/SyrCOMJerusalemBold.otf'
p869
sg21
g22
sbag7
(g8
g9
NtRp870
(dp871
g12
g13
sg14
S'Adobe Caslon Pro'
p872
sg16
I400
sg17
g13
sg18
g13
sg19
S'/Library/Fonts/ACaslonPro-Regular.otf'
p873
sg21
g22
sbag7
(g8
g9
NtRp874
(dp875
g12
g13
sg14
S'STIXIntegralsUp'
p876
sg16
I400
sg17
g13
sg18
g13
sg19
S'/Library/Fonts/STIXIntUpReg.otf'
p877
sg21
g22
sbag7
(g8
g9
NtRp878
(dp879
g12
g13
sg14
S'Mesquite Std'
p880
sg16
I500
sg17
g13
sg18
g13
sg19
S'/Library/Fonts/MesquiteStd.otf'
p881
sg21
g22
sbag7
(g8
g9
NtRp882
(dp883
g12
g13
sg14
S'Big Caslon'
p884
sg16
I500
sg17
g13
sg18
g13
sg19
S'/Library/Fonts/BigCaslon.ttf'
p885
sg21
g22
sbag7
(g8
g9
NtRp886
(dp887
g12
g74
sg14
S'Adobe Hebrew'
p888
sg16
I400
sg17
g13
sg18
g13
sg19
S'/Library/Fonts/AdobeHebrew-Italic.otf'
p889
sg21
g22
sbag7
(g8
g9
NtRp890
(dp891
g12
g13
sg14
S'Ayuthaya'
p892
sg16
I400
sg17
g13
sg18
g13
sg19
S'/Library/Fonts/Ayuthaya.ttf'
p893
sg21
g22
sbag7
(g8
g9
NtRp894
(dp895
g12
g13
sg14
S'Orator Std'
p896
sg16
I500
sg17
g13
sg18
g13
sg19
S'/Library/Fonts/OratorStd.otf'
p897
sg21
g22
sbag7
(g8
g9
NtRp898
(dp899
g12
g13
sg14
S'Blackoak Std'
p900
sg16
I900
sg17
g13
sg18
g13
sg19
S'/Library/Fonts/BlackoakStd.otf'
p901
sg21
g22
sbag7
(g8
g9
NtRp902
(dp903
g12
g13
sg14
S'Hiragino Kaku Gothic Pro'
p904
sg16
I700
sg17
g13
sg18
g13
sg19
S'/Library/Fonts/\xe3\x83\x92\xe3\x83\xa9\xe3\x82\xad\xe3\x82\x99\xe3\x83\x8e\xe8\xa7\x92\xe3\x82\xb3\xe3\x82\x99 Pro W6.otf'
p905
sg21
g22
sbag7
(g8
g9
NtRp906
(dp907
g12
g13
sg14
S'Corbel'
p908
sg16
I700
sg17
g13
sg18
g13
sg19
S'/Library/Fonts/Microsoft/Corbel Bold.ttf'
p909
sg21
g22
sbag7
(g8
g9
NtRp910
(dp911
g12
g13
sg14
S'Minion Pro'
p912
sg16
I700
sg17
g13
sg18
g13
sg19
S'/Library/Fonts/MinionPro-Bold.otf'
p913
sg21
g22
sbag7
(g8
g9
NtRp914
(dp915
g12
g13
sg14
S'YuMincho'
p916
sg16
I400
sg17
g13
sg18
g13
sg19
S'/Library/Fonts/Yu Mincho Medium.otf'
p917
sg21
g22
sbag7
(g8
g9
NtRp918
(dp919
g12
g74
sg14
S'Minion Pro'
p920
sg16
I700
sg17
g168
sg18
g13
sg19
S'/Library/Fonts/MinionPro-BoldCnIt.otf'
p921
sg21
g22
sbag7
(g8
g9
NtRp922
(dp923
g12
g13
sg14
S'Andale Mono'
p924
sg16
I400
sg17
g13
sg18
g13
sg19
S'/Library/Fonts/Andale Mono.ttf'
p925
sg21
g22
sbag7
(g8
g9
NtRp926
(dp927
g12
g74
sg14
S'Consolas'
p928
sg16
I400
sg17
g13
sg18
g13
sg19
S'/Library/Fonts/Microsoft/Consolas Italic.ttf'
p929
sg21
g22
sbag7
(g8
g9
NtRp930
(dp931
g12
g74
sg14
S'Charter'
p932
sg16
I400
sg17
g13
sg18
g13
sg19
S'/Users/tony/Library/Fonts/Charter Italic.otf'
p933
sg21
g22
sbag7
(g8
g9
NtRp934
(dp935
g12
g13
sg14
S'Letter Gothic Std'
p936
sg16
I700
sg17
g13
sg18
g13
sg19
S'/Library/Fonts/LetterGothicStd-Bold.otf'
p937
sg21
g22
sbag7
(g8
g9
NtRp938
(dp939
g12
g13
sg14
S'Silom'
p940
sg16
I400
sg17
g13
sg18
g13
sg19
S'/Library/Fonts/Silom.ttf'
p941
sg21
g22
sbag7
(g8
g9
NtRp942
(dp943
g12
g25
sg14
S'Mshtakan'
p944
sg16
I700
sg17
g13
sg18
g13
sg19
S'/Library/Fonts/MshtakanBoldOblique.ttf'
p945
sg21
g22
sbag7
(g8
g9
NtRp946
(dp947
g12
g13
sg14
S'Luxi Mono'
p948
sg16
I400
sg17
g13
sg18
g13
sg19
S'/usr/X11/lib/X11/fonts/TTF/luximr.ttf'
p949
sg21
g22
sbag7
(g8
g9
NtRp950
(dp951
g12
g74
sg14
S'Calibri'
p952
sg16
I400
sg17
g13
sg18
g13
sg19
S'/Library/Fonts/Microsoft/Calibri Italic.ttf'
p953
sg21
g22
sbag7
(g8
g9
NtRp954
(dp955
g12
g74
sg14
S'UC Berkeley OS'
p956
sg16
I700
sg17
g13
sg18
g13
sg19
S'/Users/tony/Library/Fonts/UC Berkeley OS Bold Italic.otf'
p957
sg21
g22
sbag7
(g8
g9
NtRp958
(dp959
g12
g13
sg14
S'Candara'
p960
sg16
I400
sg17
g13
sg18
g13
sg19
S'/Library/Fonts/Microsoft/Candara.ttf'
p961
sg21
g22
sbag7
(g8
g9
NtRp962
(dp963
g12
g13
sg14
S'Charter'
p964
sg16
I400
sg17
g13
sg18
g13
sg19
S'/Users/tony/Library/Fonts/Charter Regular.otf'
p965
sg21
g22
sbag7
(g8
g9
NtRp966
(dp967
g12
g13
sg14
S'MingLiU'
p968
sg16
I400
sg17
g13
sg18
g13
sg19
S'/Library/Fonts/Microsoft/MingLiU.ttf'
p969
sg21
g22
sbag7
(g8
g9
NtRp970
(dp971
g12
g13
sg14
S'Gulim'
p972
sg16
I400
sg17
g13
sg18
g13
sg19
S'/Library/Fonts/Microsoft/Gulim.ttf'
p973
sg21
g22
sbag7
(g8
g9
NtRp974
(dp975
g12
g13
sg14
S'Lao Sangam MN'
p976
sg16
I400
sg17
g13
sg18
g13
sg19
S'/Library/Fonts/Lao Sangam MN.ttf'
p977
sg21
g22
sbag7
(g8
g9
NtRp978
(dp979
g12
g13
sg14
S'Goha-Tibeb Zemen'
p980
sg16
I400
sg17
g13
sg18
g13
sg19
S'/usr/X11R6/lib/X11/fonts/TTF/GohaTibebZemen.ttf'
p981
sg21
g22
sbag7
(g8
g9
NtRp982
(dp983
g12
g13
sg14
S'Estrangelo Nisibin Outline'
p984
sg16
I400
sg17
g13
sg18
g13
sg19
S'/usr/X11/lib/X11/fonts/OTF/SyrCOMNisibinOutline.otf'
p985
sg21
g22
sbag7
(g8
g9
NtRp986
(dp987
g12
g13
sg14
S'Bodoni Ornaments'
p988
sg16
I400
sg17
g13
sg18
g13
sg19
S'/Library/Fonts/Bodoni Ornaments.ttf'
p989
sg21
g22
sbag7
(g8
g9
NtRp990
(dp991
g12
g74
sg14
S'Cambria'
p992
sg16
I700
sg17
g13
sg18
g13
sg19
S'/Library/Fonts/Microsoft/Cambria Bold Italic.ttf'
p993
sg21
g22
sbag7
(g8
g9
NtRp994
(dp995
g12
g13
sg14
S'Gabriola'
p996
sg16
I400
sg17
g13
sg18
g13
sg19
S'/Library/Fonts/Microsoft/Gabriola.ttf'
p997
sg21
g22
sbag7
(g8
g9
NtRp998
(dp999
g12
g13
sg14
S'Hiragino Mincho ProN'
p1000
sg16
I400
sg17
g13
sg18
g13
sg19
S'/System/Library/Fonts/\xe3\x83\x92\xe3\x83\xa9\xe3\x82\xad\xe3\x82\x99\xe3\x83\x8e\xe6\x98\x8e\xe6\x9c\x9d ProN W3.otf'
p1001
sg21
g22
sbag7
(g8
g9
NtRp1002
(dp1003
g12
g74
sg14
S'Adobe Caslon Pro'
p1004
sg16
I700
sg17
g13
sg18
g13
sg19
S'/Library/Fonts/ACaslonPro-BoldItalic.otf'
p1005
sg21
g22
sbag7
(g8
g9
NtRp1006
(dp1007
g12
g74
sg14
S'Adobe Caslon Pro'
p1008
sg16
I700
sg17
g13
sg18
g13
sg19
S'/Library/Fonts/ACaslonPro-SemiboldItalic.otf'
p1009
sg21
g22
sbag7
(g8
g9
NtRp1010
(dp1011
g12
g13
sg14
S'Adobe Naskh'
p1012
sg16
I500
sg17
g13
sg18
g13
sg19
S'/Library/Fonts/AdobeNaskh-Medium.otf'
p1013
sg21
g22
sbag7
(g8
g9
NtRp1014
(dp1015
g12
g13
sg14
S'OCR A Std'
p1016
sg16
I400
sg17
g13
sg18
g13
sg19
S'/Library/Fonts/OCRAStd.otf'
p1017
sg21
g22
sbag7
(g8
g9
NtRp1018
(dp1019
g12
g13
sg14
S'STIXSizeThreeSym'
p1020
sg16
I400
sg17
g13
sg18
g13
sg19
S'/Library/Fonts/STIXSizThreeSymReg.otf'
p1021
sg21
g22
sbag7
(g8
g9
NtRp1022
(dp1023
g12
g13
sg14
S'DIN Condensed'
p1024
sg16
I700
sg17
g168
sg18
g13
sg19
S'/Library/Fonts/DIN Condensed Bold.ttf'
p1025
sg21
g22
sbag7
(g8
g9
NtRp1026
(dp1027
g12
g25
sg14
S'Luxi Serif'
p1028
sg16
I400
sg17
g13
sg18
g13
sg19
S'/usr/X11R6/lib/X11/fonts/TTF/luxirri.ttf'
p1029
sg21
g22
sbag7
(g8
g9
NtRp1030
(dp1031
g12
g13
sg14
S'Microsoft Himalaya'
p1032
sg16
I400
sg17
g13
sg18
g13
sg19
S'/Library/Fonts/Microsoft/himalaya.ttf'
p1033
sg21
g22
sbag7
(g8
g9
NtRp1034
(dp1035
g12
g13
sg14
S'Estrangelo Nisibin'
p1036
sg16
I400
sg17
g13
sg18
g13
sg19
S'/usr/X11/lib/X11/fonts/OTF/SyrCOMNisibin.otf'
p1037
sg21
g22
sbag7
(g8
g9
NtRp1038
(dp1039
g12
g13
sg14
S'AppleGothic'
p1040
sg16
I400
sg17
g13
sg18
g13
sg19
S'/Library/Fonts/AppleGothic.ttf'
p1041
sg21
g22
sbag7
(g8
g9
NtRp1042
(dp1043
g12
g13
sg14
S'Arial Narrow'
p1044
sg16
I400
sg17
g168
sg18
g13
sg19
S'/Library/Fonts/Arial Narrow.ttf'
p1045
sg21
g22
sbag7
(g8
g9
NtRp1046
(dp1047
g12
g13
sg14
S'Apple SD Gothic Neo'
p1048
sg16
I700
sg17
g13
sg18
g13
sg19
S'/System/Library/Fonts/AppleSDGothicNeo-Bold.otf'
p1049
sg21
g22
sbag7
(g8
g9
NtRp1050
(dp1051
g12
g25
sg14
S'Mshtakan'
p1052
sg16
I400
sg17
g13
sg18
g13
sg19
S'/Library/Fonts/MshtakanOblique.ttf'
p1053
sg21
g22
sbag7
(g8
g9
NtRp1054
(dp1055
g12
g74
sg14
S'Times New Roman'
p1056
sg16
I500
sg17
g13
sg18
g13
sg19
S'/Library/Fonts/Microsoft/Times New Roman Italic.ttf'
p1057
sg21
g22
sbag7
(g8
g9
NtRp1058
(dp1059
g12
g13
sg14
S'PMingLiU-ExtB'
p1060
sg16
I400
sg17
g13
sg18
g13
sg19
S'/Library/Fonts/Microsoft/PMingLiU-ExtB.ttf'
p1061
sg21
g22
sbag7
(g8
g9
NtRp1062
(dp1063
g12
g25
sg14
S'Luxi Mono'
p1064
sg16
I400
sg17
g13
sg18
g13
sg19
S'/usr/X11/lib/X11/fonts/TTF/luximri.ttf'
p1065
sg21
g22
sbag7
(g8
g9
NtRp1066
(dp1067
g12
g13
sg14
S'Serto Mardin'
p1068
sg16
I700
sg17
g13
sg18
g13
sg19
S'/usr/X11/lib/X11/fonts/OTF/SyrCOMMardinBold.otf'
p1069
sg21
g22
sbag7
(g8
g9
NtRp1070
(dp1071
g12
g13
sg14
S'Myanmar Sangam MN'
p1072
sg16
I400
sg17
g13
sg18
g13
sg19
S'/Library/Fonts/Myanmar Sangam MN.ttf'
p1073
sg21
g22
sbag7
(g8
g9
NtRp1074
(dp1075
g12
g13
sg14
S'Inconsolata-dz'
p1076
sg16
I400
sg17
g13
sg18
g13
sg19
S'/Users/tony/Library/Fonts/Inconsolata-dz.otf'
p1077
sg21
g22
sbag7
(g8
g9
NtRp1078
(dp1079
g12
g13
sg14
S'Arial Narrow'
p1080
sg16
I700
sg17
g168
sg18
g13
sg19
S'/Library/Fonts/Arial Narrow Bold.ttf'
p1081
sg21
g22
sbag7
(g8
g9
NtRp1082
(dp1083
g12
g13
sg14
S'Georgia'
p1084
sg16
I400
sg17
g13
sg18
g13
sg19
S'/Library/Fonts/Georgia.ttf'
p1085
sg21
g22
sbag7
(g8
g9
NtRp1086
(dp1087
g12
g74
sg14
S'Nueva Std'
p1088
sg16
I700
sg17
g168
sg18
g13
sg19
S'/Library/Fonts/NuevaStd-BoldCondItalic.otf'
p1089
sg21
g22
sbag7
(g8
g9
NtRp1090
(dp1091
g12
g13
sg14
S'Charlemagne Std'
p1092
sg16
I700
sg17
g13
sg18
g13
sg19
S'/Library/Fonts/CharlemagneStd-Bold.otf'
p1093
sg21
g22
sbag7
(g8
g9
NtRp1094
(dp1095
g12
g13
sg14
S'Prestige Elite Std'
p1096
sg16
I700
sg17
g13
sg18
g13
sg19
S'/Library/Fonts/PrestigeEliteStd-Bd.otf'
p1097
sg21
g22
sbag7
(g8
g9
NtRp1098
(dp1099
g12
g13
sg14
S'Constantia'
p1100
sg16
I700
sg17
g13
sg18
g13
sg19
S'/Library/Fonts/Microsoft/Constantia Bold.ttf'
p1101
sg21
g22
sbag7
(g8
g9
NtRp1102
(dp1103
g12
g13
sg14
S'Minion Pro'
p1104
sg16
I400
sg17
g13
sg18
g13
sg19
S'/Library/Fonts/MinionPro-Regular.otf'
p1105
sg21
g22
sbag7
(g8
g9
NtRp1106
(dp1107
g12
g74
sg14
S'Times New Roman'
p1108
sg16
I700
sg17
g13
sg18
g13
sg19
S'/Library/Fonts/Times New Roman Bold Italic.ttf'
p1109
sg21
g22
sbag7
(g8
g9
NtRp1110
(dp1111
g12
g74
sg14
S'Arial Narrow'
p1112
sg16
I400
sg17
g168
sg18
g13
sg19
S'/Library/Fonts/Arial Narrow Italic.ttf'
p1113
sg21
g22
sbag7
(g8
g9
NtRp1114
(dp1115
g12
g13
sg14
S'LiHei Pro'
p1116
sg16
I400
sg17
g13
sg18
g13
sg19
S'/Library/Fonts/\xe5\x84\xb7\xe9\xbb\x91 Pro.ttf'
p1117
sg21
g22
sbag7
(g8
g9
NtRp1118
(dp1119
g12
g13
sg14
S'Apple SD Gothic Neo'
p1120
sg16
I400
sg17
g13
sg18
g13
sg19
S'/System/Library/Fonts/AppleSDGothicNeo-Regular.otf'
p1121
sg21
g22
sbag7
(g8
g9
NtRp1122
(dp1123
g12
g13
sg14
S'Arial'
p1124
sg16
I700
sg17
g13
sg18
g13
sg19
S'/Library/Fonts/Microsoft/Arial Bold.ttf'
p1125
sg21
g22
sbag7
(g8
g9
NtRp1126
(dp1127
g12
g13
sg14
S'Tw Cen MT'
p1128
sg16
I700
sg17
g13
sg18
g13
sg19
S'/Library/Fonts/Microsoft/Tw Cen MT Bold.ttf'
p1129
sg21
g22
sbag7
(g8
g9
NtRp1130
(dp1131
g12
g13
sg14
S'Plantagenet Cherokee'
p1132
sg16
I400
sg17
g13
sg18
g13
sg19
S'/Library/Fonts/PlantagenetCherokee.ttf'
p1133
sg21
g22
sbag7
(g8
g9
NtRp1134
(dp1135
g12
g13
sg14
S'UC Berkeley OS'
p1136
sg16
I400
sg17
g13
sg18
g13
sg19
S'/Users/tony/Library/Fonts/UC Berkeley Sign Titling.otf'
p1137
sg21
g22
sbag7
(g8
g9
NtRp1138
(dp1139
g12
g74
sg14
S'Brush Script MT'
p1140
sg16
I400
sg17
g13
sg18
g13
sg19
S'/Library/Fonts/Microsoft/Brush Script.ttf'
p1141
sg21
g22
sbag7
(g8
g9
NtRp1142
(dp1143
g12
g74
sg14
S'Tw Cen MT'
p1144
sg16
I700
sg17
g13
sg18
g13
sg19
S'/Library/Fonts/Microsoft/Tw Cen MT Bold Italic.ttf'
p1145
sg21
g22
sbag7
(g8
g9
NtRp1146
(dp1147
g12
g13
sg14
S'STIXVariants'
p1148
sg16
I400
sg17
g13
sg18
g13
sg19
S'/Library/Fonts/STIXVar.otf'
p1149
sg21
g22
sbag7
(g8
g9
NtRp1150
(dp1151
g12
g13
sg14
S'Mishafi'
p1152
sg16
I400
sg17
g13
sg18
g13
sg19
S'/Library/Fonts/Mishafi.ttf'
p1153
sg21
g22
sbag7
(g8
g9
NtRp1154
(dp1155
g12
g74
sg14
S'Candara'
p1156
sg16
I700
sg17
g13
sg18
g13
sg19
S'/Library/Fonts/Microsoft/Candara Bold Italic.ttf'
p1157
sg21
g22
sbag7
(g8
g9
NtRp1158
(dp1159
g12
g13
sg14
S'Hiragino Kaku Gothic ProN'
p1160
sg16
I700
sg17
g13
sg18
g13
sg19
S'/System/Library/Fonts/\xe3\x83\x92\xe3\x83\xa9\xe3\x82\xad\xe3\x82\x99\xe3\x83\x8e\xe8\xa7\x92\xe3\x82\xb3\xe3\x82\x99 ProN W6.otf'
p1161
sg21
g22
sbag7
(g8
g9
NtRp1162
(dp1163
g12
g13
sg14
S'Lithos Pro'
p1164
sg16
I900
sg17
g13
sg18
g13
sg19
S'/Library/Fonts/LithosPro-Black.otf'
p1165
sg21
g22
sbag7
(g8
g9
NtRp1166
(dp1167
g12
g13
sg14
S'Charter'
p1168
sg16
I700
sg17
g13
sg18
g13
sg19
S'/Users/tony/Library/Fonts/Charter Bold.otf'
p1169
sg21
g22
sbag7
(g8
g9
NtRp1170
(dp1171
g12
g13
sg14
S'Birch Std'
p1172
sg16
I400
sg17
g13
sg18
g13
sg19
S'/Library/Fonts/BirchStd.otf'
p1173
sg21
g22
sbag7
(g8
g9
NtRp1174
(dp1175
g12
g13
sg14
S'Cambria Math'
p1176
sg16
I400
sg17
g13
sg18
g13
sg19
S'/Library/Fonts/Microsoft/Cambria Math.ttf'
p1177
sg21
g22
sbag7
(g8
g9
NtRp1178
(dp1179
g12
g13
sg14
S'Skia'
p1180
sg16
I400
sg17
g13
sg18
g13
sg19
S'/Library/Fonts/Skia.ttf'
p1181
sg21
g22
sbag7
(g8
g9
NtRp1182
(dp1183
g12
g13
sg14
S'Kozuka Gothic Pr6N'
p1184
sg16
I700
sg17
g13
sg18
g13
sg19
S'/Library/Fonts/KozGoPr6N-Bold.otf'
p1185
sg21
g22
sbag7
(g8
g9
NtRp1186
(dp1187
g12
g13
sg14
S'Adobe Arabic'
p1188
sg16
I400
sg17
g13
sg18
g13
sg19
S'/Library/Fonts/AdobeArabic-Regular.otf'
p1189
sg21
g22
sbag7
(g8
g9
NtRp1190
(dp1191
g12
g25
sg14
S'Luxi Sans'
p1192
sg16
I700
sg17
g13
sg18
g13
sg19
S'/usr/X11R6/lib/X11/fonts/TTF/luxisbi.ttf'
p1193
sg21
g22
sbag7
(g8
g9
NtRp1194
(dp1195
g12
g13
sg14
S'Kozuka Mincho Pro'
p1196
sg16
I700
sg17
g13
sg18
g13
sg19
S'/Library/Fonts/KozMinPro-Heavy.otf'
p1197
sg21
g22
sbag7
(g8
g9
NtRp1198
(dp1199
g12
g13
sg14
S'UC Berkeley OS'
p1200
sg16
I700
sg17
g13
sg18
g13
sg19
S'/Users/tony/Library/Fonts/UC Berkeley Titling Bold.otf'
p1201
sg21
g22
sbag7
(g8
g9
NtRp1202
(dp1203
g12
g13
sg14
S'YuMincho'
p1204
sg16
I700
sg17
g13
sg18
g13
sg19
S'/Library/Fonts/Yu Mincho Demibold.otf'
p1205
sg21
g22
sbag7
(g8
g9
NtRp1206
(dp1207
g12
g13
sg14
S'STFangsong'
p1208
sg16
I400
sg17
g13
sg18
g13
sg19
S'/Library/Fonts/\xe5\x8d\x8e\xe6\x96\x87\xe4\xbb\xbf\xe5\xae\x8b.ttf'
p1209
sg21
g22
sbag7
(g8
g9
NtRp1210
(dp1211
g12
g13
sg14
S'Lucida Console'
p1212
sg16
I400
sg17
g13
sg18
g13
sg19
S'/Library/Fonts/Microsoft/Lucida Console.ttf'
p1213
sg21
g22
sbag7
(g8
g9
NtRp1214
(dp1215
g12
g13
sg14
S'Lithos Pro'
p1216
sg16
I400
sg17
g13
sg18
g13
sg19
S'/Library/Fonts/LithosPro-Regular.otf'
p1217
sg21
g22
sbag7
(g8
g9
NtRp1218
(dp1219
g12
g13
sg14
S'Trajan Pro'
p1220
sg16
I400
sg17
g13
sg18
g13
sg19
S'/Library/Fonts/TrajanPro-Regular.otf'
p1221
sg21
g22
sbag7
(g8
g9
NtRp1222
(dp1223
g12
g13
sg14
S'Kozuka Mincho Pro'
p1224
sg16
I700
sg17
g13
sg18
g13
sg19
S'/Library/Fonts/KozMinPro-Bold.otf'
p1225
sg21
g22
sbag7
(g8
g9
NtRp1226
(dp1227
g12
g13
sg14
S'Perpetua'
p1228
sg16
I400
sg17
g13
sg18
g13
sg19
S'/Library/Fonts/Microsoft/Perpetua.ttf'
p1229
sg21
g22
sbag7
(g8
g9
NtRp1230
(dp1231
g12
g13
sg14
S'Nueva Std'
p1232
sg16
I700
sg17
g168
sg18
g13
sg19
S'/Library/Fonts/NuevaStd-BoldCond.otf'
p1233
sg21
g22
sbag7
(g8
g9
NtRp1234
(dp1235
g12
g13
sg14
S'Cambria'
p1236
sg16
I700
sg17
g13
sg18
g13
sg19
S'/Library/Fonts/Microsoft/Cambria Bold.ttf'
p1237
sg21
g22
sbag7
(g8
g9
NtRp1238
(dp1239
g12
g74
sg14
S'Courier New'
p1240
sg16
I700
sg17
g13
sg18
g13
sg19
S'/Library/Fonts/Courier New Bold Italic.ttf'
p1241
sg21
g22
sbag7
(g8
g9
NtRp1242
(dp1243
g12
g13
sg14
S'Arial Rounded MT Bold'
p1244
sg16
I700
sg17
g13
sg18
g13
sg19
S'/Library/Fonts/Arial Rounded Bold.ttf'
p1245
sg21
g22
sbag7
(g8
g9
NtRp1246
(dp1247
g12
g13
sg14
S'Trajan Pro'
p1248
sg16
I700
sg17
g13
sg18
g13
sg19
S'/Library/Fonts/TrajanPro-Bold.otf'
p1249
sg21
g22
sbag7
(g8
g9
NtRp1250
(dp1251
g12
g74
sg14
S'Adobe Arabic'
p1252
sg16
I700
sg17
g13
sg18
g13
sg19
S'/Library/Fonts/AdobeArabic-BoldItalic.otf'
p1253
sg21
g22
sbag7
(g8
g9
NtRp1254
(dp1255
g12
g13
sg14
S'.Hiragino Kaku Gothic Interface'
p1256
sg16
I400
sg17
g13
sg18
g13
sg19
S'/System/Library/Fonts/HiraKakuInterface-W1.otf'
p1257
sg21
g22
sbag7
(g8
g9
NtRp1258
(dp1259
g12
g13
sg14
S'Kozuka Gothic Pr6N'
p1260
sg16
I400
sg17
g13
sg18
g13
sg19
S'/Library/Fonts/KozGoPr6N-Light.otf'
p1261
sg21
g22
sbag7
(g8
g9
NtRp1262
(dp1263
g12
g13
sg14
S'MingLiU-ExtB'
p1264
sg16
I400
sg17
g13
sg18
g13
sg19
S'/Library/Fonts/Microsoft/MingLiU-ExtB.ttf'
p1265
sg21
g22
sbag7
(g8
g9
NtRp1266
(dp1267
g12
g74
sg14
S'Franklin Gothic Medium'
p1268
sg16
I500
sg17
g13
sg18
g13
sg19
S'/Library/Fonts/Microsoft/Franklin Gothic Medium Italic.ttf'
p1269
sg21
g22
sbag7
(g8
g9
NtRp1270
(dp1271
g12
g13
sg14
S'Kozuka Mincho Pro'
p1272
sg16
I400
sg17
g13
sg18
g13
sg19
S'/Library/Fonts/KozMinPro-Medium.otf'
p1273
sg21
g22
sbag7
(g8
g9
NtRp1274
(dp1275
g12
g74
sg14
S'Constantia'
p1276
sg16
I400
sg17
g13
sg18
g13
sg19
S'/Library/Fonts/Microsoft/Constantia Italic.ttf'
p1277
sg21
g22
sbag7
(g8
g9
NtRp1278
(dp1279
g12
g13
sg14
S'InaiMathi'
p1280
sg16
I400
sg17
g13
sg18
g13
sg19
S'/Library/Fonts/InaiMathi.ttf'
p1281
sg21
g22
sbag7
(g8
g9
NtRp1282
(dp1283
g12
g13
sg14
S'Cambria'
p1284
sg16
I400
sg17
g13
sg18
g13
sg19
S'/Library/Fonts/Microsoft/Cambria.ttf'
p1285
sg21
g22
sbag7
(g8
g9
NtRp1286
(dp1287
g12
g13
sg14
S'Perpetua'
p1288
sg16
I700
sg17
g13
sg18
g13
sg19
S'/Library/Fonts/Microsoft/Perpetua Bold.ttf'
p1289
sg21
g22
sbag7
(g8
g9
NtRp1290
(dp1291
g12
g13
sg14
S'Batang'
p1292
sg16
I400
sg17
g13
sg18
g13
sg19
S'/Library/Fonts/Microsoft/Batang.ttf'
p1293
sg21
g22
sbag7
(g8
g9
NtRp1294
(dp1295
g12
g13
sg14
S'Kozuka Gothic Pro'
p1296
sg16
I400
sg17
g13
sg18
g13
sg19
S'/Library/Fonts/KozGoPro-Light.otf'
p1297
sg21
g22
sbag7
(g8
g9
NtRp1298
(dp1299
g12
g13
sg14
S'Minion Pro'
p1300
sg16
I700
sg17
g13
sg18
g13
sg19
S'/Library/Fonts/MinionPro-Semibold.otf'
p1301
sg21
g22
sbag7
(g8
g9
NtRp1302
(dp1303
g12
g74
sg14
S'Letter Gothic Std'
p1304
sg16
I400
sg17
g13
sg18
g13
sg19
S'/Library/Fonts/LetterGothicStd-Slanted.otf'
p1305
sg21
g22
sbag7
(g8
g9
NtRp1306
(dp1307
g12
g74
sg14
S'Myriad Pro'
p1308
sg16
I700
sg17
g13
sg18
g13
sg19
S'/Library/Fonts/MyriadPro-BoldIt.otf'
p1309
sg21
g22
sbag7
(g8
g9
NtRp1310
(dp1311
g12
g13
sg14
S'SignPainter'
p1312
sg16
I400
sg17
g13
sg18
g13
sg19
S'/Library/Fonts/SignPainter.otf'
p1313
sg21
g22
sbag7
(g8
g9
NtRp1314
(dp1315
g12
g13
sg14
S'.Keyboard'
p1316
sg16
I400
sg17
g13
sg18
g13
sg19
S'/System/Library/Fonts/Keyboard.ttf'
p1317
sg21
g22
sbag7
(g8
g9
NtRp1318
(dp1319
g12
g13
sg14
S'Hiragino Kaku Gothic Std'
p1320
sg16
I700
sg17
g13
sg18
g13
sg19
S'/Library/Fonts/\xe3\x83\x92\xe3\x83\xa9\xe3\x82\xad\xe3\x82\x99\xe3\x83\x8e\xe8\xa7\x92\xe3\x82\xb3\xe3\x82\x99 Std W8.otf'
p1321
sg21
g22
sbag7
(g8
g9
NtRp1322
(dp1323
g12
g13
sg14
S'Lucida Sans Unicode'
p1324
sg16
I400
sg17
g13
sg18
g13
sg19
S'/Library/Fonts/Microsoft/Lucida Sans Unicode.ttf'
p1325
sg21
g22
sbag7
(g8
g9
NtRp1326
(dp1327
g12
g13
sg14
S'Hiragino Sans GB'
p1328
sg16
I700
sg17
g13
sg18
g13
sg19
S'/Library/Fonts/Hiragino Sans GB W6.otf'
p1329
sg21
g22
sbag7
(g8
g9
NtRp1330
(dp1331
g12
g74
sg14
S'Consolas'
p1332
sg16
I700
sg17
g13
sg18
g13
sg19
S'/Library/Fonts/Microsoft/Consolas Bold Italic.ttf'
p1333
sg21
g22
sbag7
(g8
g9
NtRp1334
(dp1335
g12
g13
sg14
S'Microsoft Sans Serif'
p1336
sg16
I400
sg17
g13
sg18
g13
sg19
S'/Library/Fonts/Microsoft Sans Serif.ttf'
p1337
sg21
g22
sbag7
(g8
g9
NtRp1338
(dp1339
g12
g13
sg14
S'STIXIntegralsUpD'
p1340
sg16
I700
sg17
g13
sg18
g13
sg19
S'/Library/Fonts/STIXIntUpDBol.otf'
p1341
sg21
g22
sbag7
(g8
g9
NtRp1342
(dp1343
g12
g13
sg14
S'Myriad Pro'
p1344
sg16
I700
sg17
g13
sg18
g13
sg19
S'/Library/Fonts/MyriadPro-Bold.otf'
p1345
sg21
g22
sbag7
(g8
g9
NtRp1346
(dp1347
g12
g13
sg14
S'STIXGeneral'
p1348
sg16
I400
sg17
g13
sg18
g13
sg19
S'/Library/Fonts/STIXGeneral.otf'
p1349
sg21
g22
sbag7
(g8
g9
NtRp1350
(dp1351
g12
g13
sg14
S'Hiragino Kaku Gothic Pro'
p1352
sg16
I400
sg17
g13
sg18
g13
sg19
S'/Library/Fonts/\xe3\x83\x92\xe3\x83\xa9\xe3\x82\xad\xe3\x82\x99\xe3\x83\x8e\xe8\xa7\x92\xe3\x82\xb3\xe3\x82\x99 Pro W3.otf'
p1353
sg21
g22
sbag7
(g8
g9
NtRp1354
(dp1355
g12
g13
sg14
S'Giddyup Std'
p1356
sg16
I400
sg17
g13
sg18
g13
sg19
S'/Library/Fonts/GiddyupStd.otf'
p1357
sg21
g22
sbag7
(g8
g9
NtRp1358
(dp1359
g12
g13
sg14
S'Yuppy TC'
p1360
sg16
I400
sg17
g13
sg18
g13
sg19
S'/Library/Fonts/YuppyTC-Regular.otf'
p1361
sg21
g22
sbag7
(g8
g9
NtRp1362
(dp1363
g12
g74
sg14
S'UC Berkeley OS'
p1364
sg16
I400
sg17
g13
sg18
g13
sg19
S'/Users/tony/Library/Fonts/UC Berkeley OS Sign Italic.otf'
p1365
sg21
g22
sbag7
(g8
g9
NtRp1366
(dp1367
g12
g13
sg14
S'Apple Chancery'
p1368
sg16
I400
sg17
g13
sg18
g13
sg19
S'/Library/Fonts/Apple Chancery.ttf'
p1369
sg21
g22
sbag7
(g8
g9
NtRp1370
(dp1371
g12
g13
sg14
S'UC Berkeley OS'
p1372
sg16
I400
sg17
g13
sg18
g13
sg19
S'/Users/tony/Library/Fonts/UC Berkeley OS Sign.otf'
p1373
sg21
g22
sbag7
(g8
g9
NtRp1374
(dp1375
g12
g13
sg14
S'STIXIntegralsUpSm'
p1376
sg16
I700
sg17
g13
sg18
g13
sg19
S'/Library/Fonts/STIXIntUpSmBol.otf'
p1377
sg21
g22
sbag7
(g8
g9
NtRp1378
(dp1379
g12
g74
sg14
S'Myriad Hebrew'
p1380
sg16
I700
sg17
g13
sg18
g13
sg19
S'/Library/Fonts/MyriadHebrew-BoldIt.otf'
p1381
sg21
g22
sbag7
(g8
g9
NtRp1382
(dp1383
g12
g13
sg14
S'UC Berkeley OS'
p1384
sg16
I900
sg17
g13
sg18
g13
sg19
S'/Users/tony/Library/Fonts/UC Berkeley OS Black.otf'
p1385
sg21
g22
sbag7
(g8
g9
NtRp1386
(dp1387
g12
g13
sg14
S'STIXSizeOneSym'
p1388
sg16
I700
sg17
g13
sg18
g13
sg19
S'/Library/Fonts/STIXSizOneSymBol.otf'
p1389
sg21
g22
sbag7
(g8
g9
NtRp1390
(dp1391
g12
g13
sg14
S'SimSun-ExtB'
p1392
sg16
I400
sg17
g13
sg18
g13
sg19
S'/Library/Fonts/Microsoft/SimSun-ExtB.ttf'
p1393
sg21
g22
sbag7
(g8
g9
NtRp1394
(dp1395
g12
g13
sg14
S'Palatino Linotype'
p1396
sg16
I400
sg17
g13
sg18
g13
sg19
S'/Library/Fonts/Microsoft/Palatino Linotype.ttf'
p1397
sg21
g22
sbag7
(g8
g9
NtRp1398
(dp1399
g12
g13
sg14
S'Adobe Hebrew'
p1400
sg16
I400
sg17
g13
sg18
g13
sg19
S'/Library/Fonts/AdobeHebrew-Regular.otf'
p1401
sg21
g22
sbag7
(g8
g9
NtRp1402
(dp1403
g12
g13
sg14
S'STIXSizeTwoSym'
p1404
sg16
I400
sg17
g13
sg18
g13
sg19
S'/Library/Fonts/STIXSizTwoSymReg.otf'
p1405
sg21
g22
sbag7
(g8
g9
NtRp1406
(dp1407
g12
g13
sg14
S'Weibei SC'
p1408
sg16
I700
sg17
g13
sg18
g13
sg19
S'/Library/Fonts/WeibeiSC-Bold.otf'
p1409
sg21
g22
sbag7
(g8
g9
NtRp1410
(dp1411
g12
g13
sg14
S'MS PGothic'
p1412
sg16
I400
sg17
g13
sg18
g13
sg19
S'/Library/Fonts/Microsoft/MS PGothic.ttf'
p1413
sg21
g22
sbag7
(g8
g9
NtRp1414
(dp1415
g12
g74
sg14
S'Serto Jerusalem'
p1416
sg16
I400
sg17
g13
sg18
g13
sg19
S'/usr/X11/lib/X11/fonts/OTF/SyrCOMJerusalemItalic.otf'
p1417
sg21
g22
sbag7
(g8
g9
NtRp1418
(dp1419
g12
g13
sg14
S'Microsoft Tai Le'
p1420
sg16
I700
sg17
g13
sg18
g13
sg19
S'/Library/Fonts/Microsoft/TaiLeb.ttf'
p1421
sg21
g22
sbag7
(g8
g9
NtRp1422
(dp1423
g12
g13
sg14
S'STIXIntegralsUpD'
p1424
sg16
I400
sg17
g13
sg18
g13
sg19
S'/Library/Fonts/STIXIntUpDReg.otf'
p1425
sg21
g22
sbag7
(g8
g9
NtRp1426
(dp1427
g12
g74
sg14
S'Charter'
p1428
sg16
I700
sg17
g13
sg18
g13
sg19
S'/Users/tony/Library/Fonts/Charter Bold Italic.otf'
p1429
sg21
g22
sbag7
(g8
g9
NtRp1430
(dp1431
g12
g74
sg14
S'Meiryo'
p1432
sg16
I700
sg17
g13
sg18
g13
sg19
S'/Library/Fonts/Microsoft/Meiryo Bold Italic.ttf'
p1433
sg21
g22
sbag7
(g8
g9
NtRp1434
(dp1435
g12
g13
sg14
S'Kozuka Gothic Pro'
p1436
sg16
I700
sg17
g13
sg18
g13
sg19
S'/Library/Fonts/KozGoPro-Bold.otf'
p1437
sg21
g22
sbag7
(g8
g9
NtRp1438
(dp1439
g12
g74
sg14
S'Candara'
p1440
sg16
I400
sg17
g13
sg18
g13
sg19
S'/Library/Fonts/Microsoft/Candara Italic.ttf'
p1441
sg21
g22
sbag7
(g8
g9
NtRp1442
(dp1443
g12
g13
sg14
S'Kozuka Gothic Pro'
p1444
sg16
I400
sg17
g13
sg18
g13
sg19
S'/Library/Fonts/KozGoPro-Medium.otf'
p1445
sg21
g22
sbag7
(g8
g9
NtRp1446
(dp1447
g12
g13
sg14
S'Apple SD Gothic Neo'
p1448
sg16
I200
sg17
g13
sg18
g13
sg19
S'/Library/Fonts/AppleSDGothicNeo-UltraLight.otf'
p1449
sg21
g22
sbag7
(g8
g9
NtRp1450
(dp1451
g12
g13
sg14
S'Arial Unicode MS'
p1452
sg16
I400
sg17
g13
sg18
g13
sg19
S'/Library/Fonts/Arial Unicode.ttf'
p1453
sg21
g22
sbag7
(g8
g9
NtRp1454
(dp1455
g12
g13
sg14
S'Adobe Heiti Std'
p1456
sg16
I400
sg17
g13
sg18
g13
sg19
S'/Library/Fonts/AdobeHeitiStd-Regular.otf'
p1457
sg21
g22
sbag7
(g8
g9
NtRp1458
(dp1459
g12
g13
sg14
S'Kozuka Gothic Pr6N'
p1460
sg16
I700
sg17
g13
sg18
g13
sg19
S'/Library/Fonts/KozGoPr6N-Heavy.otf'
p1461
sg21
g22
sbag7
(g8
g9
NtRp1462
(dp1463
g12
g13
sg14
S'UC Berkeley OS'
p1464
sg16
I400
sg17
g13
sg18
g13
sg19
S'/Users/tony/Library/Fonts/UC Berkeley OS.otf'
p1465
sg21
g22
sbag7
(g8
g9
NtRp1466
(dp1467
g12
g74
sg14
S'Adobe Devanagari'
p1468
sg16
I400
sg17
g13
sg18
g13
sg19
S'/Library/Fonts/AdobeDevanagari-Italic.otf'
p1469
sg21
g22
sbag7
(g8
g9
NtRp1470
(dp1471
g12
g13
sg14
S'Apple SD Gothic Neo'
p1472
sg16
I800
sg17
g13
sg18
g13
sg19
S'/Library/Fonts/AppleSDGothicNeo-Heavy.otf'
p1473
sg21
g22
sbag7
(g8
g9
NtRp1474
(dp1475
g12
g13
sg14
S'Myriad Hebrew'
p1476
sg16
I400
sg17
g13
sg18
g13
sg19
S'/Library/Fonts/MyriadHebrew-Regular.otf'
p1477
sg21
g22
sbag7
(g8
g9
NtRp1478
(dp1479
g12
g13
sg14
S'Times New Roman'
p1480
sg16
I700
sg17
g13
sg18
g13
sg19
S'/Library/Fonts/Microsoft/Times New Roman Bold.ttf'
p1481
sg21
g22
sbag7
(g8
g9
NtRp1482
(dp1483
g12
g13
sg14
S'Kozuka Mincho Pr6N'
p1484
sg16
I400
sg17
g13
sg18
g13
sg19
S'/Library/Fonts/KozMinPr6N-Regular.otf'
p1485
sg21
g22
sbag7
(g8
g9
NtRp1486
(dp1487
g12
g13
sg14
S'Adobe Fan Heiti Std'
p1488
sg16
I700
sg17
g13
sg18
g13
sg19
S'/Library/Fonts/AdobeFanHeitiStd-Bold.otf'
p1489
sg21
g22
sbag7
(g8
g9
NtRp1490
(dp1491
g12
g13
sg14
S'UC Berkeley OS'
p1492
sg16
I700
sg17
g13
sg18
g13
sg19
S'/Users/tony/Library/Fonts/UC Berkeley OS Bold.otf'
p1493
sg21
g22
sbag7
(g8
g9
NtRp1494
(dp1495
g12
g13
sg14
S'Serto Jerusalem Outline'
p1496
sg16
I400
sg17
g13
sg18
g13
sg19
S'/usr/X11/lib/X11/fonts/OTF/SyrCOMJerusalemOutline.otf'
p1497
sg21
g22
sbag7
(g8
g9
NtRp1498
(dp1499
g12
g13
sg14
S'STIXIntegralsD'
p1500
sg16
I700
sg17
g13
sg18
g13
sg19
S'/Library/Fonts/STIXIntDBol.otf'
p1501
sg21
g22
sbag7
(g8
g9
NtRp1502
(dp1503
g12
g13
sg14
S'Chaparral Pro'
p1504
sg16
I700
sg17
g13
sg18
g13
sg19
S'/Library/Fonts/ChaparralPro-Bold.otf'
p1505
sg21
g22
sbag7
(g8
g9
NtRp1506
(dp1507
g12
g13
sg14
S'DIN Alternate'
p1508
sg16
I700
sg17
g13
sg18
g13
sg19
S'/Library/Fonts/DIN Alternate Bold.ttf'
p1509
sg21
g22
sbag7
(g8
g9
NtRp1510
(dp1511
g12
g13
sg14
S'Courier New'
p1512
sg16
I400
sg17
g13
sg18
g13
sg19
S'/Library/Fonts/Courier New.ttf'
p1513
sg21
g22
sbag7
(g8
g9
NtRp1514
(dp1515
g12
g74
sg14
S'Arial Narrow'
p1516
sg16
I700
sg17
g168
sg18
g13
sg19
S'/Library/Fonts/Arial Narrow Bold Italic.ttf'
p1517
sg21
g22
sbag7
(g8
g9
NtRp1518
(dp1519
g12
g13
sg14
S'Serto Jerusalem'
p1520
sg16
I400
sg17
g13
sg18
g13
sg19
S'/usr/X11/lib/X11/fonts/OTF/SyrCOMJerusalem.otf'
p1521
sg21
g22
sbag7
(g8
g9
NtRp1522
(dp1523
g12
g13
sg14
S'Zapfino'
p1524
sg16
I400
sg17
g13
sg18
g13
sg19
S'/Library/Fonts/Zapfino.ttf'
p1525
sg21
g22
sbag7
(g8
g9
NtRp1526
(dp1527
g12
g13
sg14
S'Krungthep'
p1528
sg16
I400
sg17
g13
sg18
g13
sg19
S'/Library/Fonts/Krungthep.ttf'
p1529
sg21
g22
sbag7
(g8
g9
NtRp1530
(dp1531
g12
g13
sg14
S'Apple SD Gothic Neo'
p1532
sg16
I700
sg17
g13
sg18
g13
sg19
S'/Library/Fonts/AppleSDGothicNeo-ExtraBold.otf'
p1533
sg21
g22
sbag7
(g8
g9
NtRp1534
(dp1535
g12
g13
sg14
S'Mongolian Baiti'
p1536
sg16
I400
sg17
g13
sg18
g13
sg19
S'/Library/Fonts/Microsoft/monbaiti.ttf'
p1537
sg21
g22
sbag7
(g8
g9
NtRp1538
(dp1539
g12
g13
sg14
S'Franklin Gothic Medium'
p1540
sg16
I500
sg17
g13
sg18
g13
sg19
S'/Library/Fonts/Microsoft/Franklin Gothic Medium.ttf'
p1541
sg21
g22
sbag7
(g8
g9
NtRp1542
(dp1543
g12
g13
sg14
S'Diwan Thuluth'
p1544
sg16
I400
sg17
g13
sg18
g13
sg19
S'/Library/Fonts/Diwan Thuluth.ttf'
p1545
sg21
g22
sbag7
(g8
g9
NtRp1546
(dp1547
g12
g13
sg14
S'Myriad Hebrew'
p1548
sg16
I700
sg17
g13
sg18
g13
sg19
S'/Library/Fonts/MyriadHebrew-Bold.otf'
p1549
sg21
g22
sbag7
(g8
g9
NtRp1550
(dp1551
g12
g74
sg14
S'Cooper Std'
p1552
sg16
I900
sg17
g13
sg18
g13
sg19
S'/Library/Fonts/CooperBlackStd-Italic.otf'
p1553
sg21
g22
sbag7
(g8
g9
NtRp1554
(dp1555
g12
g13
sg14
S'Minion Pro'
p1556
sg16
I700
sg17
g168
sg18
g13
sg19
S'/Library/Fonts/MinionPro-BoldCn.otf'
p1557
sg21
g22
sbag7
(g8
g9
NtRp1558
(dp1559
g12
g13
sg14
S'Hiragino Kaku Gothic ProN'
p1560
sg16
I400
sg17
g13
sg18
g13
sg19
S'/System/Library/Fonts/\xe3\x83\x92\xe3\x83\xa9\xe3\x82\xad\xe3\x82\x99\xe3\x83\x8e\xe8\xa7\x92\xe3\x82\xb3\xe3\x82\x99 ProN W3.otf'
p1561
sg21
g22
sbag7
(g8
g9
NtRp1562
(dp1563
g12
g13
sg14
S'STHeiti'
p1564
sg16
I400
sg17
g13
sg18
g13
sg19
S'/Library/Fonts/\xe5\x8d\x8e\xe6\x96\x87\xe9\xbb\x91\xe4\xbd\x93.ttf'
p1565
sg21
g22
sbag7
(g8
g9
NtRp1566
(dp1567
g12
g13
sg14
S'Estrangelo Midyat'
p1568
sg16
I400
sg17
g13
sg18
g13
sg19
S'/usr/X11/lib/X11/fonts/OTF/SyrCOMMidyat.otf'
p1569
sg21
g22
sbag7
(g8
g9
NtRp1570
(dp1571
g12
g13
sg14
S'Apple Braille'
p1572
sg16
I400
sg17
g13
sg18
g13
sg19
S'/System/Library/Fonts/Apple Braille Outline 8 Dot.ttf'
p1573
sg21
g22
sbag7
(g8
g9
NtRp1574
(dp1575
g12
g13
sg14
S'Kozuka Mincho Pro'
p1576
sg16
I400
sg17
g13
sg18
g13
sg19
S'/Library/Fonts/KozMinPro-Light.otf'
p1577
sg21
g22
sbag7
(g8
g9
NtRp1578
(dp1579
g12
g74
sg14
S'Corbel'
p1580
sg16
I400
sg17
g13
sg18
g13
sg19
S'/Library/Fonts/Microsoft/Corbel Italic.ttf'
p1581
sg21
g22
sbag7
(g8
g9
NtRp1582
(dp1583
g12
g13
sg14
S'Palatino Linotype'
p1584
sg16
I700
sg17
g13
sg18
g13
sg19
S'/Library/Fonts/Microsoft/Palatino Linotype Bold.ttf'
p1585
sg21
g22
sbag7
(g8
g9
NtRp1586
(dp1587
g12
g74
sg14
S'Adobe Garamond Pro'
p1588
sg16
I400
sg17
g13
sg18
g13
sg19
S'/Library/Fonts/AGaramondPro-Italic.otf'
p1589
sg21
g22
sbag7
(g8
g9
NtRp1590
(dp1591
g12
g13
sg14
S'STIXVariants'
p1592
sg16
I700
sg17
g13
sg18
g13
sg19
S'/Library/Fonts/STIXVarBol.otf'
p1593
sg21
g22
sbag7
(g8
g9
NtRp1594
(dp1595
g12
g13
sg14
S'Hiragino Kaku Gothic StdN'
p1596
sg16
I700
sg17
g13
sg18
g13
sg19
S'/Library/Fonts/\xe3\x83\x92\xe3\x83\xa9\xe3\x82\xad\xe3\x82\x99\xe3\x83\x8e\xe8\xa7\x92\xe3\x82\xb3\xe3\x82\x99 StdN W8.otf'
p1597
sg21
g22
sbag7
(g8
g9
NtRp1598
(dp1599
g12
g13
sg14
S'MS Gothic'
p1600
sg16
I400
sg17
g13
sg18
g13
sg19
S'/Library/Fonts/Microsoft/MS Gothic.ttf'
p1601
sg21
g22
sbag7
(g8
g9
NtRp1602
(dp1603
g12
g13
sg14
S'MS PMincho'
p1604
sg16
I400
sg17
g13
sg18
g13
sg19
S'/Library/Fonts/Microsoft/MS PMincho.ttf'
p1605
sg21
g22
sbag7
(g8
g9
NtRp1606
(dp1607
g12
g13
sg14
S'STIXIntegralsUp'
p1608
sg16
I700
sg17
g13
sg18
g13
sg19
S'/Library/Fonts/STIXIntUpBol.otf'
p1609
sg21
g22
sbag7
(g8
g9
NtRp1610
(dp1611
g12
g13
sg14
S'Wawati TC'
p1612
sg16
I400
sg17
g13
sg18
g13
sg19
S'/Library/Fonts/WawaTC-Regular.otf'
p1613
sg21
g22
sbag7
(g8
g9
NtRp1614
(dp1615
g12
g13
sg14
S'MS Reference Sans Serif'
p1616
sg16
I400
sg17
g13
sg18
g13
sg19
S'/Library/Fonts/Microsoft/MS Reference Sans Serif.ttf'
p1617
sg21
g22
sbag7
(g8
g9
NtRp1618
(dp1619
g12
g13
sg14
S'STIXSizeTwoSym'
p1620
sg16
I700
sg17
g13
sg18
g13
sg19
S'/Library/Fonts/STIXSizTwoSymBol.otf'
p1621
sg21
g22
sbag7
(g8
g9
NtRp1622
(dp1623
g12
g13
sg14
S'.Hiragino Kaku Gothic Interface'
p1624
sg16
I400
sg17
g13
sg18
g13
sg19
S'/System/Library/Fonts/HiraKakuInterface-W2.otf'
p1625
sg21
g22
sbag7
(g8
g9
NtRp1626
(dp1627
g12
g13
sg14
S'Hiragino Mincho Pro'
p1628
sg16
I400
sg17
g13
sg18
g13
sg19
S'/Library/Fonts/\xe3\x83\x92\xe3\x83\xa9\xe3\x82\xad\xe3\x82\x99\xe3\x83\x8e\xe6\x98\x8e\xe6\x9c\x9d Pro W3.otf'
p1629
sg21
g22
sbag7
(g8
g9
NtRp1630
(dp1631
g12
g13
sg14
S'Corbel'
p1632
sg16
I400
sg17
g13
sg18
g13
sg19
S'/Library/Fonts/Microsoft/Corbel.ttf'
p1633
sg21
g22
sbag7
(g8
g9
NtRp1634
(dp1635
g12
g13
sg14
S'Adobe Caslon Pro'
p1636
sg16
I700
sg17
g13
sg18
g13
sg19
S'/Library/Fonts/ACaslonPro-Semibold.otf'
p1637
sg21
g22
sbag7
(g8
g9
NtRp1638
(dp1639
g12
g13
sg14
S'Serto Mardin'
p1640
sg16
I400
sg17
g13
sg18
g13
sg19
S'/usr/X11/lib/X11/fonts/OTF/SyrCOMMardin.otf'
p1641
sg21
g22
sbag7
(g8
g9
NtRp1642
(dp1643
g12
g13
sg14
S'SimSun'
p1644
sg16
I400
sg17
g13
sg18
g13
sg19
S'/Library/Fonts/Microsoft/SimSun.ttf'
p1645
sg21
g22
sbag7
(g8
g9
NtRp1646
(dp1647
g12
g13
sg14
S'Apple Braille'
p1648
sg16
I400
sg17
g13
sg18
g13
sg19
S'/System/Library/Fonts/Apple Braille Pinpoint 8 Dot.ttf'
p1649
sg21
g22
sbag7
(g8
g9
NtRp1650
(dp1651
g12
g74
sg14
S'Georgia'
p1652
sg16
I400
sg17
g13
sg18
g13
sg19
S'/Library/Fonts/Georgia Italic.ttf'
p1653
sg21
g22
sbag7
(g8
g9
NtRp1654
(dp1655
g12
g13
sg14
S'Apple Braille'
p1656
sg16
I400
sg17
g13
sg18
g13
sg19
S'/System/Library/Fonts/Apple Braille Outline 6 Dot.ttf'
p1657
sg21
g22
sbag7
(g8
g9
NtRp1658
(dp1659
g12
g13
sg14
S'Adobe Hebrew'
p1660
sg16
I700
sg17
g13
sg18
g13
sg19
S'/Library/Fonts/AdobeHebrew-Bold.otf'
p1661
sg21
g22
sbag7
(g8
g9
NtRp1662
(dp1663
g12
g74
sg14
S'Gill Sans MT'
p1664
sg16
I700
sg17
g13
sg18
g13
sg19
S'/Library/Fonts/Microsoft/Gill Sans MT Bold Italic.ttf'
p1665
sg21
g22
sbag7
(g8
g9
NtRp1666
(dp1667
g12
g13
sg14
S'Serto Kharput'
p1668
sg16
I400
sg17
g13
sg18
g13
sg19
S'/usr/X11/lib/X11/fonts/OTF/SyrCOMKharput.otf'
p1669
sg21
g22
sbag7
(g8
g9
NtRp1670
(dp1671
g12
g13
sg14
S'Adobe Garamond Pro'
p1672
sg16
I400
sg17
g13
sg18
g13
sg19
S'/Library/Fonts/AGaramondPro-Regular.otf'
p1673
sg21
g22
sbag7
(g8
g9
NtRp1674
(dp1675
g12
g13
sg14
S'Myriad Arabic'
p1676
sg16
I700
sg17
g13
sg18
g13
sg19
S'/Library/Fonts/MyriadArabic-Bold.otf'
p1677
sg21
g22
sbag7
(g8
g9
NtRp1678
(dp1679
g12
g13
sg14
S'Chaparral Pro'
p1680
sg16
I400
sg17
g13
sg18
g13
sg19
S'/Library/Fonts/ChaparralPro-Regular.otf'
p1681
sg21
g22
sbag7
(g8
g9
NtRp1682
(dp1683
g12
g13
sg14
S'LastResort'
p1684
sg16
I400
sg17
g13
sg18
g13
sg19
S'/System/Library/Fonts/LastResort.ttf'
p1685
sg21
g22
sbag7
(g8
g9
NtRp1686
(dp1687
g12
g13
sg14
S'Apple SD Gothic Neo'
p1688
sg16
I400
sg17
g13
sg18
g13
sg19
S'/Library/Fonts/AppleSDGothicNeo-Thin.otf'
p1689
sg21
g22
sbag7
(g8
g9
NtRp1690
(dp1691
g12
g13
sg14
S'STIXGeneral'
p1692
sg16
I700
sg17
g13
sg18
g13
sg19
S'/Library/Fonts/STIXGeneralBol.otf'
p1693
sg21
g22
sbag7
(g8
g9
NtRp1694
(dp1695
g12
g74
sg14
S'Constantia'
p1696
sg16
I700
sg17
g13
sg18
g13
sg19
S'/Library/Fonts/Microsoft/Constantia Bold Italic.ttf'
p1697
sg21
g22
sbag7
(g8
g9
NtRp1698
(dp1699
g12
g13
sg14
S'Franklin Gothic Book'
p1700
sg16
I400
sg17
g13
sg18
g13
sg19
S'/Library/Fonts/Microsoft/Franklin Gothic Book.ttf'
p1701
sg21
g22
sbag7
(g8
g9
NtRp1702
(dp1703
g12
g13
sg14
S'Osaka'
p1704
sg16
I400
sg17
g13
sg18
g13
sg19
S'/Library/Fonts/OsakaMono.ttf'
p1705
sg21
g22
sbag7
(g8
g9
NtRp1706
(dp1707
g12
g13
sg14
S'Kozuka Mincho Pr6N'
p1708
sg16
I400
sg17
g13
sg18
g13
sg19
S'/Library/Fonts/KozMinPr6N-ExtraLight.otf'
p1709
sg21
g22
sbag7
(g8
g9
NtRp1710
(dp1711
g12
g74
sg14
S'STIXGeneral'
p1712
sg16
I700
sg17
g13
sg18
g13
sg19
S'/Library/Fonts/STIXGeneralBolIta.otf'
p1713
sg21
g22
sbag7
(g8
g9
NtRp1714
(dp1715
g12
g13
sg14
S'Trebuchet MS'
p1716
sg16
I400
sg17
g13
sg18
g13
sg19
S'/Library/Fonts/Trebuchet MS.ttf'
p1717
sg21
g22
sbag7
(g8
g9
NtRp1718
(dp1719
g12
g13
sg14
S'Courier New'
p1720
sg16
I700
sg17
g13
sg18
g13
sg19
S'/Library/Fonts/Courier New Bold.ttf'
p1721
sg21
g22
sbag7
(g8
g9
NtRp1722
(dp1723
g12
g13
sg14
S'Adobe Fangsong Std'
p1724
sg16
I400
sg17
g13
sg18
g13
sg19
S'/Library/Fonts/AdobeFangsongStd-Regular.otf'
p1725
sg21
g22
sbag7
(g8
g9
NtRp1726
(dp1727
g12
g13
sg14
S'Herculanum'
p1728
sg16
I400
sg17
g13
sg18
g13
sg19
S'/Library/Fonts/Herculanum.ttf'
p1729
sg21
g22
sbag7
(g8
g9
NtRp1730
(dp1731
g12
g74
sg14
S'Minion Pro'
p1732
sg16
I700
sg17
g13
sg18
g13
sg19
S'/Library/Fonts/MinionPro-SemiboldIt.otf'
p1733
sg21
g22
sbag7
(g8
g9
NtRp1734
(dp1735
g12
g13
sg14
S'Adobe Devanagari'
p1736
sg16
I400
sg17
g13
sg18
g13
sg19
S'/Library/Fonts/AdobeDevanagari-Regular.otf'
p1737
sg21
g22
sbag7
(g8
g9
NtRp1738
(dp1739
g12
g13
sg14
S'Estrangelo TurAbdin'
p1740
sg16
I400
sg17
g13
sg18
g13
sg19
S'/usr/X11/lib/X11/fonts/OTF/SyrCOMTurAbdin.otf'
p1741
sg21
g22
sbag7
(g8
g9
NtRp1742
(dp1743
g12
g13
sg14
S'Wingdings 2'
p1744
sg16
I400
sg17
g13
sg18
g13
sg19
S'/Library/Fonts/Wingdings 2.ttf'
p1745
sg21
g22
sbag7
(g8
g9
NtRp1746
(dp1747
g12
g13
sg14
S'MS Reference Specialty'
p1748
sg16
I400
sg17
g13
sg18
g13
sg19
S'/Library/Fonts/Microsoft/MS Reference Specialty.ttf'
p1749
sg21
g22
sbag7
(g8
g9
NtRp1750
(dp1751
g12
g13
sg14
S'Tahoma'
p1752
sg16
I400
sg17
g13
sg18
g13
sg19
S'/Library/Fonts/Tahoma.ttf'
p1753
sg21
g22
sbag7
(g8
g9
NtRp1754
(dp1755
g12
g13
sg14
S'Gill Sans MT'
p1756
sg16
I700
sg17
g13
sg18
g13
sg19
S'/Library/Fonts/Microsoft/Gill Sans MT Bold.ttf'
p1757
sg21
g22
sbag7
(g8
g9
NtRp1758
(dp1759
g12
g13
sg14
S'Hiragino Maru Gothic ProN'
p1760
sg16
I400
sg17
g13
sg18
g13
sg19
S'/Library/Fonts/\xe3\x83\x92\xe3\x83\xa9\xe3\x82\xad\xe3\x82\x99\xe3\x83\x8e\xe4\xb8\xb8\xe3\x82\xb3\xe3\x82\x99 ProN W4.otf'
p1761
sg21
g22
sbag7
(g8
g9
NtRp1762
(dp1763
g12
g74
sg14
S'Palatino Linotype'
p1764
sg16
I400
sg17
g13
sg18
g13
sg19
S'/Library/Fonts/Microsoft/Palatino Linotype Italic.ttf'
p1765
sg21
g22
sbag7
(g8
g9
NtRp1766
(dp1767
g12
g13
sg14
S'STIXSizeOneSym'
p1768
sg16
I400
sg17
g13
sg18
g13
sg19
S'/Library/Fonts/STIXSizOneSymReg.otf'
p1769
sg21
g22
sbag7
(g8
g9
NtRp1770
(dp1771
g12
g74
sg14
S'Orator Std'
p1772
sg16
I400
sg17
g13
sg18
g13
sg19
S'/Library/Fonts/OratorStd-Slanted.otf'
p1773
sg21
g22
sbag7
(g8
g9
NtRp1774
(dp1775
g12
g74
sg14
S'Myriad Hebrew'
p1776
sg16
I400
sg17
g13
sg18
g13
sg19
S'/Library/Fonts/MyriadHebrew-It.otf'
p1777
sg21
g22
sbag7
(g8
g9
NtRp1778
(dp1779
g12
g13
sg14
S'Microsoft Tai Le'
p1780
sg16
I400
sg17
g13
sg18
g13
sg19
S'/Library/Fonts/Microsoft/taile.ttf'
p1781
sg21
g22
sbag7
(g8
g9
NtRp1782
(dp1783
g12
g13
sg14
S'STHeiti'
p1784
sg16
I400
sg17
g13
sg18
g13
sg19
S'/Library/Fonts/\xe5\x8d\x8e\xe6\x96\x87\xe7\xbb\x86\xe9\xbb\x91.ttf'
p1785
sg21
g22
sbag7
(g8
g9
NtRp1786
(dp1787
g12
g74
sg14
S'Meiryo'
p1788
sg16
I400
sg17
g13
sg18
g13
sg19
S'/Library/Fonts/Microsoft/Meiryo Italic.ttf'
p1789
sg21
g22
sbag7
(g8
g9
NtRp1790
(dp1791
g12
g13
sg14
S'Kozuka Mincho Pro'
p1792
sg16
I400
sg17
g13
sg18
g13
sg19
S'/Library/Fonts/KozMinPro-ExtraLight.otf'
p1793
sg21
g22
sbag7
(g8
g9
NtRp1794
(dp1795
g12
g13
sg14
S'Trattatello'
p1796
sg16
I400
sg17
g13
sg18
g13
sg19
S'/Library/Fonts/Trattatello.ttf'
p1797
sg21
g22
sbag7
(g8
g9
NtRp1798
(dp1799
g12
g13
sg14
S'Hobo Std'
p1800
sg16
I500
sg17
g13
sg18
g13
sg19
S'/Library/Fonts/HoboStd.otf'
p1801
sg21
g22
sbag7
(g8
g9
NtRp1802
(dp1803
g12
g13
sg14
S'Kozuka Mincho Pr6N'
p1804
sg16
I400
sg17
g13
sg18
g13
sg19
S'/Library/Fonts/KozMinPr6N-Medium.otf'
p1805
sg21
g22
sbag7
(g8
g9
NtRp1806
(dp1807
g12
g13
sg14
S'Calibri'
p1808
sg16
I400
sg17
g13
sg18
g13
sg19
S'/Library/Fonts/Microsoft/Calibri.ttf'
p1809
sg21
g22
sbag7
(g8
g9
NtRp1810
(dp1811
g12
g13
sg14
S'Nueva Std'
p1812
sg16
I700
sg17
g13
sg18
g13
sg19
S'/Library/Fonts/NuevaStd-Bold.otf'
p1813
sg21
g22
sbag7
(g8
g9
NtRp1814
(dp1815
g12
g13
sg14
S'STIXIntegralsD'
p1816
sg16
I400
sg17
g13
sg18
g13
sg19
S'/Library/Fonts/STIXIntDReg.otf'
p1817
sg21
g22
sbag7
(g8
g9
NtRp1818
(dp1819
g12
g13
sg14
S'GungSeo'
p1820
sg16
I400
sg17
g13
sg18
g13
sg19
S'/Library/Fonts/Gungseouche.ttf'
p1821
sg21
g22
sbag7
(g8
g9
NtRp1822
(dp1823
g12
g13
sg14
S'Kozuka Gothic Pro'
p1824
sg16
I400
sg17
g13
sg18
g13
sg19
S'/Library/Fonts/KozGoPro-Regular.otf'
p1825
sg21
g22
sbag7
(g8
g9
NtRp1826
(dp1827
g12
g13
sg14
S'Sathu'
p1828
sg16
I400
sg17
g13
sg18
g13
sg19
S'/Library/Fonts/Sathu.ttf'
p1829
sg21
g22
sbag7
(g8
g9
NtRp1830
(dp1831
g12
g13
sg14
S'Gujarati MT'
p1832
sg16
I400
sg17
g13
sg18
g13
sg19
S'/Library/Fonts/GujaratiMT.ttf'
p1833
sg21
g22
sbag7
(g8
g9
NtRp1834
(dp1835
g12
g13
sg14
S'Apple SD Gothic Neo'
p1836
sg16
I500
sg17
g13
sg18
g13
sg19
S'/Library/Fonts/AppleSDGothicNeo-Medium.otf'
p1837
sg21
g22
sbasS'defaultFamily'
p1838
(dp1839
S'afm'
p1840
S'Helvetica'
p1841
sS'ttf'
p1842
S'Bitstream Vera Sans'
p1843
ssS'ttffiles'
p1844
(lp1845
S'/System/Library/Frameworks/Python.framework/Versions/2.7/Extras/lib/python/matplotlib/mpl-data/fonts/ttf/cmex10.ttf'
p1846
aS'/System/Library/Frameworks/Python.framework/Versions/2.7/Extras/lib/python/matplotlib/mpl-data/fonts/ttf/VeraBI.ttf'
p1847
aS'/System/Library/Frameworks/Python.framework/Versions/2.7/Extras/lib/python/matplotlib/mpl-data/fonts/ttf/STIXNonUni.ttf'
p1848
aS'/System/Library/Frameworks/Python.framework/Versions/2.7/Extras/lib/python/matplotlib/mpl-data/fonts/ttf/STIXNonUniBol.ttf'
p1849
aS'/System/Library/Frameworks/Python.framework/Versions/2.7/Extras/lib/python/matplotlib/mpl-data/fonts/ttf/VeraMoBd.ttf'
p1850
aS'/System/Library/Frameworks/Python.framework/Versions/2.7/Extras/lib/python/matplotlib/mpl-data/fonts/ttf/cmr10.ttf'
p1851
aS'/System/Library/Frameworks/Python.framework/Versions/2.7/Extras/lib/python/matplotlib/mpl-data/fonts/ttf/STIXGeneral.ttf'
p1852
aS'/System/Library/Frameworks/Python.framework/Versions/2.7/Extras/lib/python/matplotlib/mpl-data/fonts/ttf/VeraMoIt.ttf'
p1853
aS'/System/Library/Frameworks/Python.framework/Versions/2.7/Extras/lib/python/matplotlib/mpl-data/fonts/ttf/VeraSe.ttf'
p1854
aS'/System/Library/Frameworks/Python.framework/Versions/2.7/Extras/lib/python/matplotlib/mpl-data/fonts/ttf/STIXSizFiveSymReg.ttf'
p1855
aS'/System/Library/Frameworks/Python.framework/Versions/2.7/Extras/lib/python/matplotlib/mpl-data/fonts/ttf/VeraMono.ttf'
p1856
aS'/System/Library/Frameworks/Python.framework/Versions/2.7/Extras/lib/python/matplotlib/mpl-data/fonts/ttf/VeraMoBI.ttf'
p1857
aS'/System/Library/Frameworks/Python.framework/Versions/2.7/Extras/lib/python/matplotlib/mpl-data/fonts/ttf/STIXGeneralBol.ttf'
p1858
aS'/System/Library/Frameworks/Python.framework/Versions/2.7/Extras/lib/python/matplotlib/mpl-data/fonts/ttf/STIXGeneralItalic.ttf'
p1859
aS'/System/Library/Frameworks/Python.framework/Versions/2.7/Extras/lib/python/matplotlib/mpl-data/fonts/ttf/STIXSizFourSymReg.ttf'
p1860
aS'/System/Library/Frameworks/Python.framework/Versions/2.7/Extras/lib/python/matplotlib/mpl-data/fonts/ttf/STIXSizThreeSymBol.ttf'
p1861
aS'/System/Library/Frameworks/Python.framework/Versions/2.7/Extras/lib/python/matplotlib/mpl-data/fonts/ttf/STIXSizOneSymBol.ttf'
p1862
aS'/System/Library/Frameworks/Python.framework/Versions/2.7/Extras/lib/python/matplotlib/mpl-data/fonts/ttf/STIXSizFourSymBol.ttf'
p1863
aS'/System/Library/Frameworks/Python.framework/Versions/2.7/Extras/lib/python/matplotlib/mpl-data/fonts/ttf/VeraBd.ttf'
p1864
aS'/System/Library/Frameworks/Python.framework/Versions/2.7/Extras/lib/python/matplotlib/mpl-data/fonts/ttf/cmsy10.ttf'
p1865
aS'/System/Library/Frameworks/Python.framework/Versions/2.7/Extras/lib/python/matplotlib/mpl-data/fonts/ttf/STIXSizTwoSymReg.ttf'
p1866
aS'/System/Library/Frameworks/Python.framework/Versions/2.7/Extras/lib/python/matplotlib/mpl-data/fonts/ttf/STIXNonUniBolIta.ttf'
p1867
aS'/System/Library/Frameworks/Python.framework/Versions/2.7/Extras/lib/python/matplotlib/mpl-data/fonts/ttf/cmb10.ttf'
p1868
aS'/System/Library/Frameworks/Python.framework/Versions/2.7/Extras/lib/python/matplotlib/mpl-data/fonts/ttf/cmss10.ttf'
p1869
aS'/System/Library/Frameworks/Python.framework/Versions/2.7/Extras/lib/python/matplotlib/mpl-data/fonts/ttf/STIXSizThreeSymReg.ttf'
p1870
aS'/System/Library/Frameworks/Python.framework/Versions/2.7/Extras/lib/python/matplotlib/mpl-data/fonts/ttf/STIXSizOneSymReg.ttf'
p1871
aS'/System/Library/Frameworks/Python.framework/Versions/2.7/Extras/lib/python/matplotlib/mpl-data/fonts/ttf/Vera.ttf'
p1872
aS'/System/Library/Frameworks/Python.framework/Versions/2.7/Extras/lib/python/matplotlib/mpl-data/fonts/ttf/cmmi10.ttf'
p1873
aS'/System/Library/Frameworks/Python.framework/Versions/2.7/Extras/lib/python/matplotlib/mpl-data/fonts/ttf/VeraSeBd.ttf'
p1874
aS'/System/Library/Frameworks/Python.framework/Versions/2.7/Extras/lib/python/matplotlib/mpl-data/fonts/ttf/VeraIt.ttf'
p1875
aS'/System/Library/Frameworks/Python.framework/Versions/2.7/Extras/lib/python/matplotlib/mpl-data/fonts/ttf/STIXSizTwoSymBol.ttf'
p1876
aS'/System/Library/Frameworks/Python.framework/Versions/2.7/Extras/lib/python/matplotlib/mpl-data/fonts/ttf/STIXNonUniIta.ttf'
p1877
aS'/System/Library/Frameworks/Python.framework/Versions/2.7/Extras/lib/python/matplotlib/mpl-data/fonts/ttf/cmtt10.ttf'
p1878
aS'/System/Library/Frameworks/Python.framework/Versions/2.7/Extras/lib/python/matplotlib/mpl-data/fonts/ttf/STIXGeneralBolIta.ttf'
p1879
aS'/Library/Fonts/Trebuchet MS Italic.ttf'
p1880
aS'/Library/Fonts/MshtakanRegular.ttf'
p1881
aS'/Library/Fonts/MyriadPro-CondIt.otf'
p1882
aS'/usr/X11/lib/X11/fonts/OTF/SyrCOMUrhoy.otf'
p1883
aS'/Library/Fonts/PoplarStd.otf'
p1884
aS'/Library/Fonts/KozGoPr6N-ExtraLight.otf'
p1885
aS'/Library/Fonts/Microsoft/Gill Sans MT Italic.ttf'
p1886
aS'/Library/Fonts/Times New Roman.ttf'
p1887
aS'/Library/Fonts/NISC18030.ttf'
p1888
aS'/Library/Fonts/AppleMyungjo.ttf'
p1889
aS'/Library/Fonts/Mishafi Gold.ttf'
p1890
aS'/Library/Fonts/Osaka.ttf'
p1891
aS'/usr/X11R6/lib/X11/fonts/TTF/Vera.ttf'
p1892
aS'/usr/X11R6/lib/X11/fonts/TTF/VeraMono.ttf'
p1893
aS'/Library/Fonts/STIXSizThreeSymBol.otf'
p1894
aS'/System/Library/Fonts/Symbol.ttf'
p1895
aS'/usr/X11/lib/X11/fonts/OTF/SyrCOMCtesiphon.otf'
p1896
aS'/Library/Fonts/Microsoft/Candara Bold.ttf'
p1897
aS'/Library/Fonts/Microsoft/Tw Cen MT.ttf'
p1898
aS'/Library/Fonts/MyriadPro-It.otf'
p1899
aS'/Library/Fonts/MinionPro-It.otf'
p1900
aS'/usr/X11R6/lib/X11/fonts/TTF/luxirr.ttf'
p1901
aS'/Library/Fonts/KozGoPr6N-Regular.otf'
p1902
aS'/Library/Fonts/Arial Bold Italic.ttf'
p1903
aS'/Library/Fonts/HeadlineA.ttf'
p1904
aS'/Library/Fonts/TektonPro-Bold.otf'
p1905
aS'/usr/X11/lib/X11/fonts/OTF/SyrCOMBatnan.otf'
p1906
aS'/Library/Fonts/MshtakanBold.ttf'
p1907
aS'/Library/Fonts/MyriadArabic-It.otf'
p1908
aS'/Library/Fonts/NuevaStd-Italic.otf'
p1909
aS'/Library/Fonts/Microsoft/Calibril.ttf'
p1910
aS'/Library/Fonts/LetterGothicStd.otf'
p1911
aS'/Library/Fonts/STIXSizFiveSymReg.otf'
p1912
aS'/usr/X11/lib/X11/fonts/OTF/SyrCOMUrhoyBold.otf'
p1913
aS'/Library/Fonts/Gurmukhi.ttf'
p1914
aS'/Library/Fonts/Yu Gothic Bold.otf'
p1915
aS'/System/Library/Fonts/Apple Color Emoji.ttf'
p1916
aS'/Library/Fonts/Microsoft/Cambria Italic.ttf'
p1917
aS'/Library/Fonts/TektonPro-BoldObl.otf'
p1918
aS'/usr/X11/lib/X11/fonts/OTF/SyrCOMAdiabene.otf'
p1919
aS'/Users/tony/Library/Fonts/UC Berkeley OS Demi Italic.otf'
p1920
aS'/Library/Fonts/AdobeMyungjoStd-Medium.otf'
p1921
aS'/Library/Fonts/\xe3\x83\x92\xe3\x83\xa9\xe3\x82\xad\xe3\x82\x99\xe3\x83\x8e\xe4\xb8\xb8\xe3\x82\xb3\xe3\x82\x99 Pro W4.otf'
p1922
aS'/Library/Fonts/Microsoft/Perpetua Bold Italic.ttf'
p1923
aS'/Users/tony/Library/Fonts/UC Berkeley OS Black Italic.otf'
p1924
aS'/Library/Fonts/AdobeGothicStd-Bold.otf'
p1925
aS'/usr/X11/lib/X11/fonts/OTF/SyrCOMTalada.otf'
p1926
aS'/Library/Fonts/Microsoft/Verdana Bold.ttf'
p1927
aS'/Library/Fonts/MyriadPro-Semibold.otf'
p1928
aS'/Library/Fonts/Microsoft/Verdana.ttf'
p1929
aS'/Library/Fonts/Khmer Sangam MN.ttf'
p1930
aS'/Library/Fonts/PCmyoungjo.ttf'
p1931
aS'/Library/Fonts/Microsoft/mingliu_hkscs.ttf'
p1932
aS'/Library/Fonts/KozMinPr6N-Bold.otf'
p1933
aS'/Library/Fonts/Verdana Bold Italic.ttf'
p1934
aS'/usr/X11/lib/X11/fonts/OTF/SyrCOMQenNeshrin.otf'
p1935
aS'/usr/X11/lib/X11/fonts/OTF/SyrCOMMalankara.otf'
p1936
aS'/usr/X11/lib/X11/fonts/OTF/SyrCOMEdessa.otf'
p1937
aS'/Library/Fonts/Kokonor.ttf'
p1938
aS'/usr/X11/lib/X11/fonts/OTF/GohaTibebZemen.otf'
p1939
aS'/Library/Fonts/AdobeDevanagari-BoldItalic.otf'
p1940
aS'/System/Library/Fonts/Apple Braille.ttf'
p1941
aS'/Library/Fonts/\xe3\x83\x92\xe3\x83\xa9\xe3\x82\xad\xe3\x82\x99\xe3\x83\x8e\xe6\x98\x8e\xe6\x9c\x9d Pro W6.otf'
p1942
aS'/Library/Fonts/Kailasa.ttf'
p1943
aS'/Library/Fonts/STIXNonUniIta.otf'
p1944
aS'/Library/Fonts/Microsoft/MS Mincho.ttf'
p1945
aS'/Library/Fonts/TektonPro-BoldExt.otf'
p1946
aS'/Library/Fonts/ChaparralPro-Italic.otf'
p1947
aS'/Library/Fonts/Comic Sans MS Bold.ttf'
p1948
aS'/usr/X11/lib/X11/fonts/TTF/luxisr.ttf'
p1949
aS'/Library/Fonts/AGaramondPro-BoldItalic.otf'
p1950
aS'/Library/Fonts/AppleSDGothicNeo-SemiBold.otf'
p1951
aS'/Library/Fonts/STIXNonUniBol.otf'
p1952
aS'/Library/Fonts/Webdings.ttf'
p1953
aS'/System/Library/Fonts/Apple Braille Pinpoint 6 Dot.ttf'
p1954
aS'/Library/Fonts/KozMinPr6N-Heavy.otf'
p1955
aS'/usr/X11/lib/X11/fonts/TTF/VeraSeBd.ttf'
p1956
aS'/Library/Fonts/Microsoft/MingLiU_HKSCS-ExtB.ttf'
p1957
aS'/Library/Fonts/KozGoPro-Heavy.otf'
p1958
aS'/Library/Fonts/Microsoft/Franklin Gothic Book Italic.ttf'
p1959
aS'/usr/X11R6/lib/X11/fonts/TTF/VeraSeBd.ttf'
p1960
aS'/Users/tony/Library/Fonts/UC Berkeley OS Italic.otf'
p1961
aS'/Library/Fonts/Microsoft/Palatino Linotype Bold Italic.ttf'
p1962
aS'/Library/Fonts/STIXIntUpSmReg.otf'
p1963
aS'/Library/Fonts/Microsoft/Meiryo.ttf'
p1964
aS'/Library/Fonts/MinionPro-MediumIt.otf'
p1965
aS'/Library/Fonts/KozMinPro-Regular.otf'
p1966
aS'/Library/Fonts/Courier New Italic.ttf'
p1967
aS'/Library/Fonts/Microsoft/Verdana Bold Italic.ttf'
p1968
aS'/Library/Fonts/Arial Black.ttf'
p1969
aS'/Library/Fonts/MyriadPro-SemiboldIt.otf'
p1970
aS'/usr/X11/lib/X11/fonts/TTF/luxirr.ttf'
p1971
aS'/Library/Fonts/STIXGeneralItalic.otf'
p1972
aS'/Library/Fonts/MyriadPro-BoldCondIt.otf'
p1973
aS'/usr/X11R6/lib/X11/fonts/TTF/VeraBd.ttf'
p1974
aS'/Library/Fonts/STIXSizFourSymReg.otf'
p1975
aS'/Library/Fonts/AdobeKaitiStd-Regular.otf'
p1976
aS'/Library/Fonts/Microsoft/msyi.ttf'
p1977
aS'/Library/Fonts/NuevaStd-Cond.otf'
p1978
aS'/Library/Fonts/Wingdings 3.ttf'
p1979
aS'/Library/Fonts/Microsoft/Wingdings 3.ttf'
p1980
aS'/Library/Fonts/Microsoft/Consolas.ttf'
p1981
aS'/Library/Fonts/Microsoft/Perpetua Italic.ttf'
p1982
aS'/Library/Fonts/Comic Sans MS.ttf'
p1983
aS'/Library/Fonts/KozMinPr6N-Light.otf'
p1984
aS'/Library/Fonts/Microsoft/PMingLiU.ttf'
p1985
aS'/Library/Fonts/Microsoft/Arial.ttf'
p1986
aS'/Library/Fonts/STIXSizFourSymBol.otf'
p1987
aS'/Library/Fonts/KozGoPr6N-Medium.otf'
p1988
aS'/Library/Fonts/Microsoft/Marlett.ttf'
p1989
aS'/Library/Fonts/Microsoft/Calibri Bold.ttf'
p1990
aS'/Library/Fonts/YuppySC-Regular.otf'
p1991
aS'/Library/Fonts/MinionPro-Medium.otf'
p1992
aS'/Library/Fonts/Wingdings.ttf'
p1993
aS'/Library/Fonts/Impact.ttf'
p1994
aS'/Library/Fonts/Tahoma Bold.ttf'
p1995
aS'/Library/Fonts/Georgia Bold Italic.ttf'
p1996
aS'/Library/Fonts/TektonPro-BoldCond.otf'
p1997
aS'/usr/X11R6/lib/X11/fonts/TTF/VeraMoBd.ttf'
p1998
aS'/Library/Fonts/MyriadArabic-BoldIt.otf'
p1999
aS'/usr/X11/lib/X11/fonts/TTF/luximbi.ttf'
p2000
aS'/Library/Fonts/Hoefler Text Ornaments.ttf'
p2001
aS'/Library/Fonts/ChaparralPro-LightIt.otf'
p2002
aS'/Library/Fonts/AdobeArabic-Italic.otf'
p2003
aS'/System/Library/Fonts/\xe3\x83\x92\xe3\x83\xa9\xe3\x82\xad\xe3\x82\x99\xe3\x83\x8e\xe6\x98\x8e\xe6\x9c\x9d ProN W6.otf'
p2004
aS'/Library/Fonts/RosewoodStd-Regular.otf'
p2005
aS'/Library/Fonts/AdobeArabic-Bold.otf'
p2006
aS'/Library/Fonts/Pilgiche.ttf'
p2007
aS'/Library/Fonts/Microsoft/Gill Sans MT.ttf'
p2008
aS'/Library/Fonts/MyriadArabic-Regular.otf'
p2009
aS'/Library/Fonts/Microsoft/Constantia.ttf'
p2010
aS'/Library/Fonts/Microsoft/Verdana Italic.ttf'
p2011
aS'/Library/Fonts/Yu Gothic Medium.otf'
p2012
aS'/Library/Fonts/GujaratiMTBold.ttf'
p2013
aS'/Library/Fonts/LetterGothicStd-BoldSlanted.otf'
p2014
aS'/usr/X11/lib/X11/fonts/TTF/luximb.ttf'
p2015
aS'/Library/Fonts/NuevaStd-CondItalic.otf'
p2016
aS'/Library/Fonts/Microsoft/Arial Italic.ttf'
p2017
aS'/usr/X11/lib/X11/fonts/TTF/luxisri.ttf'
p2018
aS'/System/Library/Fonts/ZapfDingbats.ttf'
p2019
aS'/Library/Fonts/Microsoft/Calibri Bold Italic.ttf'
p2020
aS'/Library/Fonts/Microsoft/Corbel Bold Italic.ttf'
p2021
aS'/Library/Fonts/AGaramondPro-Bold.otf'
p2022
aS'/Library/Fonts/StencilStd.otf'
p2023
aS'/Library/Fonts/Luminari.ttf'
p2024
aS'/Library/Fonts/MyriadPro-Regular.otf'
p2025
aS'/Library/Fonts/MyriadPro-Cond.otf'
p2026
aS'/Library/Fonts/Trebuchet MS Bold Italic.ttf'
p2027
aS'/Library/Fonts/STIXIntSmBol.otf'
p2028
aS'/Library/Fonts/AdobeMingStd-Light.otf'
p2029
aS'/Library/Fonts/Microsoft/Meiryo Bold.ttf'
p2030
aS'/Library/Fonts/Bradley Hand Bold.ttf'
p2031
aS'/Library/Fonts/CooperBlackStd.otf'
p2032
aS'/Library/Fonts/Verdana Italic.ttf'
p2033
aS'/Library/Fonts/KozGoPro-ExtraLight.otf'
p2034
aS'/Library/Fonts/Microsoft/Tw Cen MT Italic.ttf'
p2035
aS'/Library/Fonts/Microsoft/Bookshelf Symbol 7.ttf'
p2036
aS'/Library/Fonts/ChaparralPro-BoldIt.otf'
p2037
aS'/Library/Fonts/Microsoft/Consolas Bold.ttf'
p2038
aS'/usr/X11/lib/X11/fonts/TTF/VeraIt.ttf'
p2039
aS'/Library/Fonts/AdobeSongStd-Light.otf'
p2040
aS'/Library/Fonts/Hiragino Sans GB W3.otf'
p2041
aS'/usr/X11R6/lib/X11/fonts/TTF/luxirb.ttf'
p2042
aS'/Library/Fonts/AdobeHebrew-BoldItalic.otf'
p2043
aS'/Library/Fonts/Verdana.ttf'
p2044
aS'/Library/Fonts/Farisi.ttf'
p2045
aS'/usr/X11/lib/X11/fonts/TTF/luxisb.ttf'
p2046
aS'/Library/Fonts/STIXNonUni.otf'
p2047
aS'/Library/Fonts/Bodoni 72 Smallcaps Book.ttf'
p2048
aS'/Library/Fonts/Arial Italic.ttf'
p2049
aS'/Library/Fonts/Trebuchet MS Bold.ttf'
p2050
aS'/Library/Fonts/\xe5\x84\xb7\xe5\xae\x8b Pro.ttf'
p2051
aS'/Library/Fonts/STIXNonUniBolIta.otf'
p2052
aS'/Library/Fonts/AdobeDevanagari-Bold.otf'
p2053
aS'/Library/Fonts/BrushScriptStd.otf'
p2054
aS'/Library/Fonts/WawaSC-Regular.otf'
p2055
aS'/Library/Fonts/Microsoft/SimHei.ttf'
p2056
aS'/usr/X11R6/lib/X11/fonts/TTF/luxirbi.ttf'
p2057
aS'/Library/Fonts/AppleSDGothicNeo-Light.otf'
p2058
aS'/Library/Fonts/ACaslonPro-Bold.otf'
p2059
aS'/Library/Fonts/STIXIntSmReg.otf'
p2060
aS'/Library/Fonts/MyriadPro-BoldCond.otf'
p2061
aS'/Library/Fonts/ACaslonPro-Italic.otf'
p2062
aS'/Library/Fonts/Georgia Bold.ttf'
p2063
aS'/Library/Fonts/Chalkduster.ttf'
p2064
aS'/Users/tony/Library/Fonts/UC Berkeley OS Demi.otf'
p2065
aS'/usr/X11/lib/X11/fonts/OTF/SyrCOMAntioch.otf'
p2066
aS'/Library/Fonts/WeibeiTC-Bold.otf'
p2067
aS'/usr/X11/lib/X11/fonts/OTF/SyrCOMBatnanBold.otf'
p2068
aS'/Library/Fonts/MinionPro-BoldIt.otf'
p2069
aS'/Users/tony/Library/Fonts/UC Berkeley OS Titling.otf'
p2070
aS'/usr/X11/lib/X11/fonts/OTF/SyrCOMJerusalemBold.otf'
p2071
aS'/usr/X11/lib/X11/fonts/TTF/VeraMoBI.ttf'
p2072
aS'/Library/Fonts/ACaslonPro-Regular.otf'
p2073
aS'/Library/Fonts/STIXIntUpReg.otf'
p2074
aS'/Library/Fonts/MesquiteStd.otf'
p2075
aS'/Library/Fonts/BigCaslon.ttf'
p2076
aS'/Library/Fonts/AdobeHebrew-Italic.otf'
p2077
aS'/Library/Fonts/Ayuthaya.ttf'
p2078
aS'/Library/Fonts/OratorStd.otf'
p2079
aS'/Library/Fonts/BlackoakStd.otf'
p2080
aS'/Library/Fonts/\xe3\x83\x92\xe3\x83\xa9\xe3\x82\xad\xe3\x82\x99\xe3\x83\x8e\xe8\xa7\x92\xe3\x82\xb3\xe3\x82\x99 Pro W6.otf'
p2081
aS'/Library/Fonts/Microsoft/Corbel Bold.ttf'
p2082
aS'/Library/Fonts/Microsoft/Arial Bold Italic.ttf'
p2083
aS'/Library/Fonts/MinionPro-Bold.otf'
p2084
aS'/Library/Fonts/Yu Mincho Medium.otf'
p2085
aS'/Library/Fonts/MinionPro-BoldCnIt.otf'
p2086
aS'/Library/Fonts/Andale Mono.ttf'
p2087
aS'/Library/Fonts/Microsoft/Consolas Italic.ttf'
p2088
aS'/Users/tony/Library/Fonts/Charter Italic.otf'
p2089
aS'/Library/Fonts/LetterGothicStd-Bold.otf'
p2090
aS'/Library/Fonts/Silom.ttf'
p2091
aS'/Library/Fonts/MshtakanBoldOblique.ttf'
p2092
aS'/usr/X11R6/lib/X11/fonts/TTF/luxisri.ttf'
p2093
aS'/usr/X11/lib/X11/fonts/TTF/luximr.ttf'
p2094
aS'/Library/Fonts/Microsoft/Calibri Italic.ttf'
p2095
aS'/Users/tony/Library/Fonts/UC Berkeley OS Bold Italic.otf'
p2096
aS'/Library/Fonts/Microsoft/Candara.ttf'
p2097
aS'/Users/tony/Library/Fonts/Charter Regular.otf'
p2098
aS'/Library/Fonts/Microsoft/MingLiU.ttf'
p2099
aS'/Library/Fonts/Microsoft/Gulim.ttf'
p2100
aS'/Library/Fonts/Lao Sangam MN.ttf'
p2101
aS'/usr/X11R6/lib/X11/fonts/TTF/GohaTibebZemen.ttf'
p2102
aS'/usr/X11/lib/X11/fonts/OTF/SyrCOMNisibinOutline.otf'
p2103
aS'/Library/Fonts/Bodoni Ornaments.ttf'
p2104
aS'/Library/Fonts/Microsoft/Cambria Bold Italic.ttf'
p2105
aS'/Library/Fonts/Microsoft/Gabriola.ttf'
p2106
aS'/System/Library/Fonts/\xe3\x83\x92\xe3\x83\xa9\xe3\x82\xad\xe3\x82\x99\xe3\x83\x8e\xe6\x98\x8e\xe6\x9c\x9d ProN W3.otf'
p2107
aS'/Library/Fonts/ACaslonPro-BoldItalic.otf'
p2108
aS'/Library/Fonts/ACaslonPro-SemiboldItalic.otf'
p2109
aS'/Library/Fonts/AdobeNaskh-Medium.otf'
p2110
aS'/usr/X11R6/lib/X11/fonts/TTF/VeraBI.ttf'
p2111
aS'/Library/Fonts/OCRAStd.otf'
p2112
aS'/Library/Fonts/Verdana Bold.ttf'
p2113
aS'/Library/Fonts/STIXSizThreeSymReg.otf'
p2114
aS'/Library/Fonts/DIN Condensed Bold.ttf'
p2115
aS'/usr/X11R6/lib/X11/fonts/TTF/luxirri.ttf'
p2116
aS'/Library/Fonts/Microsoft/himalaya.ttf'
p2117
aS'/usr/X11/lib/X11/fonts/OTF/SyrCOMNisibin.otf'
p2118
aS'/Library/Fonts/Arial.ttf'
p2119
aS'/Library/Fonts/AppleGothic.ttf'
p2120
aS'/Library/Fonts/Arial Narrow.ttf'
p2121
aS'/System/Library/Fonts/AppleSDGothicNeo-Bold.otf'
p2122
aS'/Library/Fonts/MshtakanOblique.ttf'
p2123
aS'/Library/Fonts/Microsoft/Times New Roman Italic.ttf'
p2124
aS'/Library/Fonts/Microsoft/Times New Roman.ttf'
p2125
aS'/Library/Fonts/Microsoft/PMingLiU-ExtB.ttf'
p2126
aS'/usr/X11/lib/X11/fonts/TTF/luximri.ttf'
p2127
aS'/usr/X11R6/lib/X11/fonts/TTF/VeraMoIt.ttf'
p2128
aS'/usr/X11/lib/X11/fonts/OTF/SyrCOMMardinBold.otf'
p2129
aS'/Library/Fonts/Myanmar Sangam MN.ttf'
p2130
aS'/Users/tony/Library/Fonts/Inconsolata-dz.otf'
p2131
aS'/Library/Fonts/Arial Narrow Bold.ttf'
p2132
aS'/Library/Fonts/Times New Roman Italic.ttf'
p2133
aS'/Library/Fonts/Georgia.ttf'
p2134
aS'/Library/Fonts/NuevaStd-BoldCondItalic.otf'
p2135
aS'/Library/Fonts/CharlemagneStd-Bold.otf'
p2136
aS'/Library/Fonts/PrestigeEliteStd-Bd.otf'
p2137
aS'/Library/Fonts/Microsoft/Constantia Bold.ttf'
p2138
aS'/Library/Fonts/MinionPro-Regular.otf'
p2139
aS'/usr/X11/lib/X11/fonts/TTF/luxirb.ttf'
p2140
aS'/Library/Fonts/Times New Roman Bold Italic.ttf'
p2141
aS'/Library/Fonts/Arial Narrow Italic.ttf'
p2142
aS'/Library/Fonts/\xe5\x84\xb7\xe9\xbb\x91 Pro.ttf'
p2143
aS'/usr/X11/lib/X11/fonts/TTF/VeraMono.ttf'
p2144
aS'/System/Library/Fonts/AppleSDGothicNeo-Regular.otf'
p2145
aS'/Library/Fonts/Microsoft/Arial Bold.ttf'
p2146
aS'/Library/Fonts/Microsoft/Tw Cen MT Bold.ttf'
p2147
aS'/Library/Fonts/PlantagenetCherokee.ttf'
p2148
aS'/Users/tony/Library/Fonts/UC Berkeley Sign Titling.otf'
p2149
aS'/Library/Fonts/Microsoft/Brush Script.ttf'
p2150
aS'/Library/Fonts/Microsoft/Tw Cen MT Bold Italic.ttf'
p2151
aS'/Library/Fonts/STIXVar.otf'
p2152
aS'/Library/Fonts/Mishafi.ttf'
p2153
aS'/Library/Fonts/Microsoft/Candara Bold Italic.ttf'
p2154
aS'/System/Library/Fonts/\xe3\x83\x92\xe3\x83\xa9\xe3\x82\xad\xe3\x82\x99\xe3\x83\x8e\xe8\xa7\x92\xe3\x82\xb3\xe3\x82\x99 ProN W6.otf'
p2155
aS'/Library/Fonts/LithosPro-Black.otf'
p2156
aS'/Users/tony/Library/Fonts/Charter Bold.otf'
p2157
aS'/Library/Fonts/BirchStd.otf'
p2158
aS'/Library/Fonts/Microsoft/Cambria Math.ttf'
p2159
aS'/Library/Fonts/Skia.ttf'
p2160
aS'/Library/Fonts/KozGoPr6N-Bold.otf'
p2161
aS'/Library/Fonts/AdobeArabic-Regular.otf'
p2162
aS'/usr/X11R6/lib/X11/fonts/TTF/luxisbi.ttf'
p2163
aS'/Library/Fonts/KozMinPro-Heavy.otf'
p2164
aS'/Users/tony/Library/Fonts/UC Berkeley Titling Bold.otf'
p2165
aS'/Library/Fonts/Yu Mincho Demibold.otf'
p2166
aS'/Library/Fonts/\xe5\x8d\x8e\xe6\x96\x87\xe4\xbb\xbf\xe5\xae\x8b.ttf'
p2167
aS'/Library/Fonts/Microsoft/Lucida Console.ttf'
p2168
aS'/Library/Fonts/LithosPro-Regular.otf'
p2169
aS'/usr/X11/lib/X11/fonts/TTF/VeraMoBd.ttf'
p2170
aS'/Library/Fonts/TrajanPro-Regular.otf'
p2171
aS'/Library/Fonts/KozMinPro-Bold.otf'
p2172
aS'/Library/Fonts/Microsoft/Perpetua.ttf'
p2173
aS'/Library/Fonts/NuevaStd-BoldCond.otf'
p2174
aS'/Library/Fonts/Microsoft/Cambria Bold.ttf'
p2175
aS'/Library/Fonts/Courier New Bold Italic.ttf'
p2176
aS'/usr/X11/lib/X11/fonts/TTF/VeraBd.ttf'
p2177
aS'/Library/Fonts/Arial Rounded Bold.ttf'
p2178
aS'/Library/Fonts/TrajanPro-Bold.otf'
p2179
aS'/Library/Fonts/AdobeArabic-BoldItalic.otf'
p2180
aS'/System/Library/Fonts/HiraKakuInterface-W1.otf'
p2181
aS'/Library/Fonts/KozGoPr6N-Light.otf'
p2182
aS'/Library/Fonts/Microsoft/MingLiU-ExtB.ttf'
p2183
aS'/Library/Fonts/Microsoft/Franklin Gothic Medium Italic.ttf'
p2184
aS'/Library/Fonts/KozMinPro-Medium.otf'
p2185
aS'/usr/X11R6/lib/X11/fonts/TTF/VeraIt.ttf'
p2186
aS'/Library/Fonts/Microsoft/Constantia Italic.ttf'
p2187
aS'/Library/Fonts/InaiMathi.ttf'
p2188
aS'/Library/Fonts/Microsoft/Cambria.ttf'
p2189
aS'/Library/Fonts/Microsoft/Perpetua Bold.ttf'
p2190
aS'/Library/Fonts/Microsoft/Batang.ttf'
p2191
aS'/Library/Fonts/KozGoPro-Light.otf'
p2192
aS'/Library/Fonts/MinionPro-Semibold.otf'
p2193
aS'/Library/Fonts/LetterGothicStd-Slanted.otf'
p2194
aS'/usr/X11/lib/X11/fonts/TTF/luxisbi.ttf'
p2195
aS'/Library/Fonts/MyriadPro-BoldIt.otf'
p2196
aS'/Library/Fonts/SignPainter.otf'
p2197
aS'/System/Library/Fonts/Keyboard.ttf'
p2198
aS'/Library/Fonts/\xe3\x83\x92\xe3\x83\xa9\xe3\x82\xad\xe3\x82\x99\xe3\x83\x8e\xe8\xa7\x92\xe3\x82\xb3\xe3\x82\x99 Std W8.otf'
p2199
aS'/Library/Fonts/Microsoft/Lucida Sans Unicode.ttf'
p2200
aS'/Library/Fonts/Hiragino Sans GB W6.otf'
p2201
aS'/usr/X11R6/lib/X11/fonts/TTF/luximbi.ttf'
p2202
aS'/Library/Fonts/Microsoft/Consolas Bold Italic.ttf'
p2203
aS'/Library/Fonts/Microsoft Sans Serif.ttf'
p2204
aS'/Library/Fonts/STIXIntUpDBol.otf'
p2205
aS'/Library/Fonts/MyriadPro-Bold.otf'
p2206
aS'/Library/Fonts/STIXGeneral.otf'
p2207
aS'/usr/X11R6/lib/X11/fonts/TTF/luxisb.ttf'
p2208
aS'/Library/Fonts/\xe3\x83\x92\xe3\x83\xa9\xe3\x82\xad\xe3\x82\x99\xe3\x83\x8e\xe8\xa7\x92\xe3\x82\xb3\xe3\x82\x99 Pro W3.otf'
p2209
aS'/Library/Fonts/GiddyupStd.otf'
p2210
aS'/Library/Fonts/YuppyTC-Regular.otf'
p2211
aS'/Users/tony/Library/Fonts/UC Berkeley OS Sign Italic.otf'
p2212
aS'/Library/Fonts/Apple Chancery.ttf'
p2213
aS'/usr/X11/lib/X11/fonts/TTF/Vera.ttf'
p2214
aS'/Users/tony/Library/Fonts/UC Berkeley OS Sign.otf'
p2215
aS'/Library/Fonts/STIXIntUpSmBol.otf'
p2216
aS'/Library/Fonts/MyriadHebrew-BoldIt.otf'
p2217
aS'/usr/X11R6/lib/X11/fonts/TTF/luxisr.ttf'
p2218
aS'/Users/tony/Library/Fonts/UC Berkeley OS Black.otf'
p2219
aS'/Library/Fonts/STIXSizOneSymBol.otf'
p2220
aS'/Library/Fonts/Microsoft/SimSun-ExtB.ttf'
p2221
aS'/Library/Fonts/Microsoft/Palatino Linotype.ttf'
p2222
aS'/Library/Fonts/AdobeHebrew-Regular.otf'
p2223
aS'/Library/Fonts/STIXSizTwoSymReg.otf'
p2224
aS'/Library/Fonts/WeibeiSC-Bold.otf'
p2225
aS'/Library/Fonts/Arial Bold.ttf'
p2226
aS'/Library/Fonts/Microsoft/MS PGothic.ttf'
p2227
aS'/usr/X11/lib/X11/fonts/OTF/SyrCOMJerusalemItalic.otf'
p2228
aS'/Library/Fonts/Microsoft/TaiLeb.ttf'
p2229
aS'/Library/Fonts/STIXIntUpDReg.otf'
p2230
aS'/usr/X11R6/lib/X11/fonts/TTF/luximri.ttf'
p2231
aS'/Users/tony/Library/Fonts/Charter Bold Italic.otf'
p2232
aS'/Library/Fonts/Microsoft/Meiryo Bold Italic.ttf'
p2233
aS'/Library/Fonts/KozGoPro-Bold.otf'
p2234
aS'/Library/Fonts/Microsoft/Candara Italic.ttf'
p2235
aS'/Library/Fonts/KozGoPro-Medium.otf'
p2236
aS'/Library/Fonts/AppleSDGothicNeo-UltraLight.otf'
p2237
aS'/Library/Fonts/Arial Unicode.ttf'
p2238
aS'/usr/X11/lib/X11/fonts/TTF/VeraSe.ttf'
p2239
aS'/Library/Fonts/AdobeHeitiStd-Regular.otf'
p2240
aS'/usr/X11R6/lib/X11/fonts/TTF/VeraMoBI.ttf'
p2241
aS'/Library/Fonts/KozGoPr6N-Heavy.otf'
p2242
aS'/Users/tony/Library/Fonts/UC Berkeley OS.otf'
p2243
aS'/Library/Fonts/AdobeDevanagari-Italic.otf'
p2244
aS'/Library/Fonts/AppleSDGothicNeo-Heavy.otf'
p2245
aS'/Library/Fonts/MyriadHebrew-Regular.otf'
p2246
aS'/Library/Fonts/Microsoft/Times New Roman Bold.ttf'
p2247
aS'/Library/Fonts/KozMinPr6N-Regular.otf'
p2248
aS'/Library/Fonts/AdobeFanHeitiStd-Bold.otf'
p2249
aS'/Users/tony/Library/Fonts/UC Berkeley OS Bold.otf'
p2250
aS'/usr/X11/lib/X11/fonts/OTF/SyrCOMJerusalemOutline.otf'
p2251
aS'/Library/Fonts/STIXIntDBol.otf'
p2252
aS'/Library/Fonts/ChaparralPro-Bold.otf'
p2253
aS'/Library/Fonts/DIN Alternate Bold.ttf'
p2254
aS'/Library/Fonts/Courier New.ttf'
p2255
aS'/Library/Fonts/Arial Narrow Bold Italic.ttf'
p2256
aS'/usr/X11/lib/X11/fonts/OTF/SyrCOMJerusalem.otf'
p2257
aS'/Library/Fonts/Zapfino.ttf'
p2258
aS'/Library/Fonts/Krungthep.ttf'
p2259
aS'/Library/Fonts/AppleSDGothicNeo-ExtraBold.otf'
p2260
aS'/Library/Fonts/Microsoft/Times New Roman Bold Italic.ttf'
p2261
aS'/Library/Fonts/Microsoft/monbaiti.ttf'
p2262
aS'/Library/Fonts/Microsoft/Franklin Gothic Medium.ttf'
p2263
aS'/usr/X11/lib/X11/fonts/TTF/VeraMoIt.ttf'
p2264
aS'/Library/Fonts/Diwan Thuluth.ttf'
p2265
aS'/Library/Fonts/MyriadHebrew-Bold.otf'
p2266
aS'/Library/Fonts/CooperBlackStd-Italic.otf'
p2267
aS'/Library/Fonts/MinionPro-BoldCn.otf'
p2268
aS'/System/Library/Fonts/\xe3\x83\x92\xe3\x83\xa9\xe3\x82\xad\xe3\x82\x99\xe3\x83\x8e\xe8\xa7\x92\xe3\x82\xb3\xe3\x82\x99 ProN W3.otf'
p2269
aS'/Library/Fonts/\xe5\x8d\x8e\xe6\x96\x87\xe9\xbb\x91\xe4\xbd\x93.ttf'
p2270
aS'/usr/X11/lib/X11/fonts/OTF/SyrCOMMidyat.otf'
p2271
aS'/System/Library/Fonts/Apple Braille Outline 8 Dot.ttf'
p2272
aS'/Library/Fonts/KozMinPro-Light.otf'
p2273
aS'/Library/Fonts/Times New Roman Bold.ttf'
p2274
aS'/Library/Fonts/Microsoft/Corbel Italic.ttf'
p2275
aS'/usr/X11/lib/X11/fonts/TTF/GohaTibebZemen.ttf'
p2276
aS'/Library/Fonts/Microsoft/Palatino Linotype Bold.ttf'
p2277
aS'/Library/Fonts/AGaramondPro-Italic.otf'
p2278
aS'/Library/Fonts/STIXVarBol.otf'
p2279
aS'/Library/Fonts/\xe3\x83\x92\xe3\x83\xa9\xe3\x82\xad\xe3\x82\x99\xe3\x83\x8e\xe8\xa7\x92\xe3\x82\xb3\xe3\x82\x99 StdN W8.otf'
p2280
aS'/Library/Fonts/Microsoft/MS Gothic.ttf'
p2281
aS'/Library/Fonts/Microsoft/MS PMincho.ttf'
p2282
aS'/Library/Fonts/STIXIntUpBol.otf'
p2283
aS'/Library/Fonts/WawaTC-Regular.otf'
p2284
aS'/Library/Fonts/Microsoft/MS Reference Sans Serif.ttf'
p2285
aS'/Library/Fonts/STIXSizTwoSymBol.otf'
p2286
aS'/System/Library/Fonts/HiraKakuInterface-W2.otf'
p2287
aS'/Library/Fonts/\xe3\x83\x92\xe3\x83\xa9\xe3\x82\xad\xe3\x82\x99\xe3\x83\x8e\xe6\x98\x8e\xe6\x9c\x9d Pro W3.otf'
p2288
aS'/Library/Fonts/Microsoft/Corbel.ttf'
p2289
aS'/Library/Fonts/ACaslonPro-Semibold.otf'
p2290
aS'/usr/X11/lib/X11/fonts/OTF/SyrCOMMardin.otf'
p2291
aS'/usr/X11/lib/X11/fonts/TTF/luxirbi.ttf'
p2292
aS'/Library/Fonts/Microsoft/SimSun.ttf'
p2293
aS'/System/Library/Fonts/Apple Braille Pinpoint 8 Dot.ttf'
p2294
aS'/Library/Fonts/Georgia Italic.ttf'
p2295
aS'/System/Library/Fonts/Apple Braille Outline 6 Dot.ttf'
p2296
aS'/Library/Fonts/AdobeHebrew-Bold.otf'
p2297
aS'/Library/Fonts/Microsoft/Gill Sans MT Bold Italic.ttf'
p2298
aS'/usr/X11/lib/X11/fonts/OTF/SyrCOMKharput.otf'
p2299
aS'/Library/Fonts/AGaramondPro-Regular.otf'
p2300
aS'/Library/Fonts/MyriadArabic-Bold.otf'
p2301
aS'/usr/X11/lib/X11/fonts/TTF/luxirri.ttf'
p2302
aS'/Library/Fonts/ChaparralPro-Regular.otf'
p2303
aS'/System/Library/Fonts/LastResort.ttf'
p2304
aS'/Library/Fonts/AppleSDGothicNeo-Thin.otf'
p2305
aS'/Library/Fonts/STIXGeneralBol.otf'
p2306
aS'/Library/Fonts/Microsoft/Constantia Bold Italic.ttf'
p2307
aS'/Library/Fonts/Microsoft/Franklin Gothic Book.ttf'
p2308
aS'/Library/Fonts/OsakaMono.ttf'
p2309
aS'/Library/Fonts/KozMinPr6N-ExtraLight.otf'
p2310
aS'/Library/Fonts/STIXGeneralBolIta.otf'
p2311
aS'/Library/Fonts/Trebuchet MS.ttf'
p2312
aS'/usr/X11/lib/X11/fonts/TTF/VeraBI.ttf'
p2313
aS'/Library/Fonts/Courier New Bold.ttf'
p2314
aS'/Library/Fonts/AdobeFangsongStd-Regular.otf'
p2315
aS'/Library/Fonts/Herculanum.ttf'
p2316
aS'/Library/Fonts/Microsoft/Wingdings.ttf'
p2317
aS'/Library/Fonts/MinionPro-SemiboldIt.otf'
p2318
aS'/Library/Fonts/AdobeDevanagari-Regular.otf'
p2319
aS'/usr/X11/lib/X11/fonts/OTF/SyrCOMTurAbdin.otf'
p2320
aS'/Library/Fonts/Wingdings 2.ttf'
p2321
aS'/Library/Fonts/Microsoft/MS Reference Specialty.ttf'
p2322
aS'/Library/Fonts/Tahoma.ttf'
p2323
aS'/Library/Fonts/Brush Script.ttf'
p2324
aS'/Library/Fonts/Microsoft/Gill Sans MT Bold.ttf'
p2325
aS'/Library/Fonts/\xe3\x83\x92\xe3\x83\xa9\xe3\x82\xad\xe3\x82\x99\xe3\x83\x8e\xe4\xb8\xb8\xe3\x82\xb3\xe3\x82\x99 ProN W4.otf'
p2326
aS'/Library/Fonts/Microsoft/Palatino Linotype Italic.ttf'
p2327
aS'/Library/Fonts/STIXSizOneSymReg.otf'
p2328
aS'/Library/Fonts/OratorStd-Slanted.otf'
p2329
aS'/Library/Fonts/MyriadHebrew-It.otf'
p2330
aS'/usr/X11R6/lib/X11/fonts/TTF/luximr.ttf'
p2331
aS'/Library/Fonts/Microsoft/Wingdings 2.ttf'
p2332
aS'/Library/Fonts/Microsoft/taile.ttf'
p2333
aS'/Library/Fonts/\xe5\x8d\x8e\xe6\x96\x87\xe7\xbb\x86\xe9\xbb\x91.ttf'
p2334
aS'/usr/X11R6/lib/X11/fonts/TTF/luximb.ttf'
p2335
aS'/Library/Fonts/Microsoft/Meiryo Italic.ttf'
p2336
aS'/Library/Fonts/KozMinPro-ExtraLight.otf'
p2337
aS'/Library/Fonts/Trattatello.ttf'
p2338
aS'/Library/Fonts/HoboStd.otf'
p2339
aS'/usr/X11R6/lib/X11/fonts/TTF/VeraSe.ttf'
p2340
aS'/Library/Fonts/KozMinPr6N-Medium.otf'
p2341
aS'/Library/Fonts/Microsoft/Calibri.ttf'
p2342
aS'/Library/Fonts/NuevaStd-Bold.otf'
p2343
aS'/Library/Fonts/STIXIntDReg.otf'
p2344
aS'/Library/Fonts/Gungseouche.ttf'
p2345
aS'/Library/Fonts/KozGoPro-Regular.otf'
p2346
aS'/Library/Fonts/Sathu.ttf'
p2347
aS'/Library/Fonts/GujaratiMT.ttf'
p2348
aS'/Library/Fonts/AppleSDGothicNeo-Medium.otf'
p2349
asS'_FontManager__default_weight'
p2350
g13
sS'_version'
p2351
I101
sS'ttf_lookup_cache'
p2352
(dp2353
sS'default_size'
p2354
NsS'defaultFont'
p2355
(dp2356
g1840
S'/System/Library/Frameworks/Python.framework/Versions/2.7/Extras/lib/python/matplotlib/mpl-data/fonts/afm/phvl8a.afm'
p2357
sg1842
g1872
ssS'afmfiles'
p2358
(lp2359
g2357
aS'/System/Library/Frameworks/Python.framework/Versions/2.7/Extras/lib/python/matplotlib/mpl-data/fonts/afm/putbi8a.afm'
p2360
aS'/System/Library/Frameworks/Python.framework/Versions/2.7/Extras/lib/python/matplotlib/mpl-data/fonts/afm/pbkl8a.afm'
p2361
aS'/System/Library/Frameworks/Python.framework/Versions/2.7/Extras/lib/python/matplotlib/mpl-data/fonts/afm/phvbo8a.afm'
p2362
aS'/System/Library/Frameworks/Python.framework/Versions/2.7/Extras/lib/python/matplotlib/mpl-data/fonts/afm/phvb8an.afm'
p2363
aS'/System/Library/Frameworks/Python.framework/Versions/2.7/Extras/lib/python/matplotlib/mpl-data/fonts/pdfcorefonts/Symbol.afm'
p2364
aS'/System/Library/Frameworks/Python.framework/Versions/2.7/Extras/lib/python/matplotlib/mpl-data/fonts/afm/phvbo8an.afm'
p2365
aS'/System/Library/Frameworks/Python.framework/Versions/2.7/Extras/lib/python/matplotlib/mpl-data/fonts/pdfcorefonts/Times-Roman.afm'
p2366
aS'/System/Library/Frameworks/Python.framework/Versions/2.7/Extras/lib/python/matplotlib/mpl-data/fonts/afm/pncr8a.afm'
p2367
aS'/System/Library/Frameworks/Python.framework/Versions/2.7/Extras/lib/python/matplotlib/mpl-data/fonts/afm/pzdr.afm'
p2368
aS'/System/Library/Frameworks/Python.framework/Versions/2.7/Extras/lib/python/matplotlib/mpl-data/fonts/afm/phvlo8a.afm'
p2369
aS'/System/Library/Frameworks/Python.framework/Versions/2.7/Extras/lib/python/matplotlib/mpl-data/fonts/pdfcorefonts/Times-Italic.afm'
p2370
aS'/System/Library/Frameworks/Python.framework/Versions/2.7/Extras/lib/python/matplotlib/mpl-data/fonts/pdfcorefonts/Helvetica.afm'
p2371
aS'/System/Library/Frameworks/Python.framework/Versions/2.7/Extras/lib/python/matplotlib/mpl-data/fonts/afm/phvr8an.afm'
p2372
aS'/System/Library/Frameworks/Python.framework/Versions/2.7/Extras/lib/python/matplotlib/mpl-data/fonts/pdfcorefonts/Courier-Bold.afm'
p2373
aS'/System/Library/Frameworks/Python.framework/Versions/2.7/Extras/lib/python/matplotlib/mpl-data/fonts/pdfcorefonts/Helvetica-Bold.afm'
p2374
aS'/System/Library/Frameworks/Python.framework/Versions/2.7/Extras/lib/python/matplotlib/mpl-data/fonts/afm/ptmb8a.afm'
p2375
aS'/System/Library/Frameworks/Python.framework/Versions/2.7/Extras/lib/python/matplotlib/mpl-data/fonts/afm/pagd8a.afm'
p2376
aS'/System/Library/Frameworks/Python.framework/Versions/2.7/Extras/lib/python/matplotlib/mpl-data/fonts/afm/psyr.afm'
p2377
aS'/System/Library/Frameworks/Python.framework/Versions/2.7/Extras/lib/python/matplotlib/mpl-data/fonts/pdfcorefonts/ZapfDingbats.afm'
p2378
aS'/System/Library/Frameworks/Python.framework/Versions/2.7/Extras/lib/python/matplotlib/mpl-data/fonts/afm/putr8a.afm'
p2379
aS'/System/Library/Frameworks/Python.framework/Versions/2.7/Extras/lib/python/matplotlib/mpl-data/fonts/afm/cmtt10.afm'
p2380
aS'/System/Library/Frameworks/Python.framework/Versions/2.7/Extras/lib/python/matplotlib/mpl-data/fonts/afm/ptmri8a.afm'
p2381
aS'/System/Library/Frameworks/Python.framework/Versions/2.7/Extras/lib/python/matplotlib/mpl-data/fonts/afm/ptmr8a.afm'
p2382
aS'/System/Library/Frameworks/Python.framework/Versions/2.7/Extras/lib/python/matplotlib/mpl-data/fonts/pdfcorefonts/Helvetica-Oblique.afm'
p2383
aS'/System/Library/Frameworks/Python.framework/Versions/2.7/Extras/lib/python/matplotlib/mpl-data/fonts/afm/cmr10.afm'
p2384
aS'/System/Library/Frameworks/Python.framework/Versions/2.7/Extras/lib/python/matplotlib/mpl-data/fonts/pdfcorefonts/Courier-Oblique.afm'
p2385
aS'/System/Library/Frameworks/Python.framework/Versions/2.7/Extras/lib/python/matplotlib/mpl-data/fonts/afm/pcrro8a.afm'
p2386
aS'/System/Library/Frameworks/Python.framework/Versions/2.7/Extras/lib/python/matplotlib/mpl-data/fonts/pdfcorefonts/Courier.afm'
p2387
aS'/System/Library/Frameworks/Python.framework/Versions/2.7/Extras/lib/python/matplotlib/mpl-data/fonts/afm/ptmbi8a.afm'
p2388
aS'/System/Library/Frameworks/Python.framework/Versions/2.7/Extras/lib/python/matplotlib/mpl-data/fonts/afm/pagdo8a.afm'
p2389
aS'/System/Library/Frameworks/Python.framework/Versions/2.7/Extras/lib/python/matplotlib/mpl-data/fonts/pdfcorefonts/Times-BoldItalic.afm'
p2390
aS'/System/Library/Frameworks/Python.framework/Versions/2.7/Extras/lib/python/matplotlib/mpl-data/fonts/pdfcorefonts/Helvetica-BoldOblique.afm'
p2391
aS'/System/Library/Frameworks/Python.framework/Versions/2.7/Extras/lib/python/matplotlib/mpl-data/fonts/afm/pbkd8a.afm'
p2392
aS'/System/Library/Frameworks/Python.framework/Versions/2.7/Extras/lib/python/matplotlib/mpl-data/fonts/afm/pplr8a.afm'
p2393
aS'/System/Library/Frameworks/Python.framework/Versions/2.7/Extras/lib/python/matplotlib/mpl-data/fonts/afm/pagk8a.afm'
p2394
aS'/System/Library/Frameworks/Python.framework/Versions/2.7/Extras/lib/python/matplotlib/mpl-data/fonts/afm/putri8a.afm'
p2395
aS'/System/Library/Frameworks/Python.framework/Versions/2.7/Extras/lib/python/matplotlib/mpl-data/fonts/afm/pcrbo8a.afm'
p2396
aS'/System/Library/Frameworks/Python.framework/Versions/2.7/Extras/lib/python/matplotlib/mpl-data/fonts/afm/pcrb8a.afm'
p2397
aS'/System/Library/Frameworks/Python.framework/Versions/2.7/Extras/lib/python/matplotlib/mpl-data/fonts/afm/phvro8a.afm'
p2398
aS'/System/Library/Frameworks/Python.framework/Versions/2.7/Extras/lib/python/matplotlib/mpl-data/fonts/afm/pbkdi8a.afm'
p2399
aS'/System/Library/Frameworks/Python.framework/Versions/2.7/Extras/lib/python/matplotlib/mpl-data/fonts/pdfcorefonts/Times-Bold.afm'
p2400
aS'/System/Library/Frameworks/Python.framework/Versions/2.7/Extras/lib/python/matplotlib/mpl-data/fonts/afm/pplri8a.afm'
p2401
aS'/System/Library/Frameworks/Python.framework/Versions/2.7/Extras/lib/python/matplotlib/mpl-data/fonts/afm/pncb8a.afm'
p2402
aS'/System/Library/Frameworks/Python.framework/Versions/2.7/Extras/lib/python/matplotlib/mpl-data/fonts/afm/putb8a.afm'
p2403
aS'/System/Library/Frameworks/Python.framework/Versions/2.7/Extras/lib/python/matplotlib/mpl-data/fonts/afm/pncbi8a.afm'
p2404
aS'/System/Library/Frameworks/Python.framework/Versions/2.7/Extras/lib/python/matplotlib/mpl-data/fonts/afm/pbkli8a.afm'
p2405
aS'/System/Library/Frameworks/Python.framework/Versions/2.7/Extras/lib/python/matplotlib/mpl-data/fonts/afm/phvb8a.afm'
p2406
aS'/System/Library/Frameworks/Python.framework/Versions/2.7/Extras/lib/python/matplotlib/mpl-data/fonts/afm/pcrr8a.afm'
p2407
aS'/System/Library/Frameworks/Python.framework/Versions/2.7/Extras/lib/python/matplotlib/mpl-data/fonts/afm/cmsy10.afm'
p2408
aS'/System/Library/Frameworks/Python.framework/Versions/2.7/Extras/lib/python/matplotlib/mpl-data/fonts/afm/cmmi10.afm'
p2409
aS'/System/Library/Frameworks/Python.framework/Versions/2.7/Extras/lib/python/matplotlib/mpl-data/fonts/afm/pplbi8a.afm'
p2410
aS'/System/Library/Frameworks/Python.framework/Versions/2.7/Extras/lib/python/matplotlib/mpl-data/fonts/afm/cmex10.afm'
p2411
aS'/System/Library/Frameworks/Python.framework/Versions/2.7/Extras/lib/python/matplotlib/mpl-data/fonts/afm/pncri8a.afm'
p2412
aS'/System/Library/Frameworks/Python.framework/Versions/2.7/Extras/lib/python/matplotlib/mpl-data/fonts/afm/pagko8a.afm'
p2413
aS'/System/Library/Frameworks/Python.framework/Versions/2.7/Extras/lib/python/matplotlib/mpl-data/fonts/afm/pzcmi8a.afm'
p2414
aS'/System/Library/Frameworks/Python.framework/Versions/2.7/Extras/lib/python/matplotlib/mpl-data/fonts/pdfcorefonts/Courier-BoldOblique.afm'
p2415
aS'/System/Library/Frameworks/Python.framework/Versions/2.7/Extras/lib/python/matplotlib/mpl-data/fonts/afm/phvro8an.afm'
p2416
aS'/System/Library/Frameworks/Python.framework/Versions/2.7/Extras/lib/python/matplotlib/mpl-data/fonts/afm/pplb8a.afm'
p2417
aS'/System/Library/Frameworks/Python.framework/Versions/2.7/Extras/lib/python/matplotlib/mpl-data/fonts/afm/phvr8a.afm'
p2418
aS'/usr/X11/lib/X11/fonts/Type1/UTB_____.afm'
p2419
aS'/usr/X11/lib/X11/fonts/Type1/c0583bt_.afm'
p2420
aS'/usr/X11/lib/X11/fonts/Type1/l049036t.afm'
p2421
aS'/usr/X11/lib/X11/fonts/Type1/c0649bt_.afm'
p2422
aS'/usr/X11/lib/X11/fonts/Type1/UTRG____.afm'
p2423
aS'/usr/X11/lib/X11/fonts/Type1/c0582bt_.afm'
p2424
aS'/usr/X11/lib/X11/fonts/Type1/c0648bt_.afm'
p2425
aS'/usr/X11/lib/X11/fonts/Type1/c0633bt_.afm'
p2426
aS'/usr/X11/lib/X11/fonts/Type1/l048013t.afm'
p2427
aS'/usr/X11/lib/X11/fonts/Type1/courb.afm'
p2428
aS'/usr/X11/lib/X11/fonts/Type1/c0419bt_.afm'
p2429
aS'/usr/X11/lib/X11/fonts/Type1/UTI_____.afm'
p2430
aS'/usr/X11/lib/X11/fonts/Type1/l049016t.afm'
p2431
aS'/usr/X11/lib/X11/fonts/Type1/l048033t.afm'
p2432
aS'/usr/X11/lib/X11/fonts/Type1/l048016t.afm'
p2433
aS'/usr/X11/lib/X11/fonts/Type1/l048036t.afm'
p2434
aS'/usr/X11/lib/X11/fonts/Type1/courbi.afm'
p2435
aS'/usr/X11/lib/X11/fonts/Type1/c0632bt_.afm'
p2436
aS'/usr/X11/lib/X11/fonts/Type1/l049013t.afm'
p2437
aS'/usr/X11/lib/X11/fonts/Type1/c0611bt_.afm'
p2438
aS'/usr/X11/lib/X11/fonts/Type1/l047036t.afm'
p2439
aS'/usr/X11/lib/X11/fonts/Type1/l047016t.afm'
p2440
aS'/usr/X11/lib/X11/fonts/Type1/l047033t.afm'
p2441
aS'/usr/X11/lib/X11/fonts/Type1/l047013t.afm'
p2442
aS'/usr/X11/lib/X11/fonts/Type1/l049033t.afm'
p2443
aS'/usr/X11/lib/X11/fonts/Type1/UTBI____.afm'
p2444
aS'/usr/X11/lib/X11/fonts/Type1/cour.afm'
p2445
aS'/usr/X11/lib/X11/fonts/Type1/couri.afm'
p2446
asS'afmlist'
p2447
(lp2448
g7
(g8
g9
NtRp2449
(dp2450
g12
g13
sg14
S'Helvetica'
p2451
sg16
I200
sg17
g13
sg18
g13
sg19
g2357
sg21
g22
sbag7
(g8
g9
NtRp2452
(dp2453
g12
g74
sg14
S'Utopia'
p2454
sg16
I700
sg17
g13
sg18
g13
sg19
g2360
sg21
g22
sbag7
(g8
g9
NtRp2455
(dp2456
g12
g13
sg14
S'ITC Bookman'
p2457
sg16
I200
sg17
g13
sg18
g13
sg19
g2361
sg21
g22
sbag7
(g8
g9
NtRp2458
(dp2459
g12
g74
sg14
S'Helvetica'
p2460
sg16
I700
sg17
g13
sg18
g13
sg19
g2362
sg21
g22
sbag7
(g8
g9
NtRp2461
(dp2462
g12
g13
sg14
S'Helvetica'
p2463
sg16
I700
sg17
g168
sg18
g13
sg19
g2363
sg21
g22
sbag7
(g8
g9
NtRp2464
(dp2465
g12
g13
sg14
S'Symbol'
p2466
sg16
I500
sg17
g13
sg18
g13
sg19
g2364
sg21
g22
sbag7
(g8
g9
NtRp2467
(dp2468
g12
g74
sg14
S'Helvetica'
p2469
sg16
I700
sg17
g168
sg18
g13
sg19
g2365
sg21
g22
sbag7
(g8
g9
NtRp2470
(dp2471
g12
g13
sg14
S'Times'
p2472
sg16
I500
sg17
g13
sg18
g13
sg19
g2366
sg21
g22
sbag7
(g8
g9
NtRp2473
(dp2474
g12
g13
sg14
S'New Century Schoolbook'
p2475
sg16
I500
sg17
g13
sg18
g13
sg19
g2367
sg21
g22
sbag7
(g8
g9
NtRp2476
(dp2477
g12
g13
sg14
S'ITC Zapf Dingbats'
p2478
sg16
I500
sg17
g13
sg18
g13
sg19
g2368
sg21
g22
sbag7
(g8
g9
NtRp2479
(dp2480
g12
g74
sg14
S'Helvetica'
p2481
sg16
I200
sg17
g13
sg18
g13
sg19
g2369
sg21
g22
sbag7
(g8
g9
NtRp2482
(dp2483
g12
g74
sg14
S'Times'
p2484
sg16
I500
sg17
g13
sg18
g13
sg19
g2370
sg21
g22
sbag7
(g8
g9
NtRp2485
(dp2486
g12
g13
sg14
S'Helvetica'
p2487
sg16
I500
sg17
g13
sg18
g13
sg19
g2371
sg21
g22
sbag7
(g8
g9
NtRp2488
(dp2489
g12
g13
sg14
S'Helvetica'
p2490
sg16
I500
sg17
g168
sg18
g13
sg19
g2372
sg21
g22
sbag7
(g8
g9
NtRp2491
(dp2492
g12
g13
sg14
S'Courier'
p2493
sg16
I700
sg17
g13
sg18
g13
sg19
g2373
sg21
g22
sbag7
(g8
g9
NtRp2494
(dp2495
g12
g13
sg14
S'Helvetica'
p2496
sg16
I700
sg17
g13
sg18
g13
sg19
g2374
sg21
g22
sbag7
(g8
g9
NtRp2497
(dp2498
g12
g13
sg14
S'Times'
p2499
sg16
I700
sg17
g13
sg18
g13
sg19
g2375
sg21
g22
sbag7
(g8
g9
NtRp2500
(dp2501
g12
g13
sg14
S'ITC Avant Garde Gothic'
p2502
sg16
I600
sg17
g13
sg18
g13
sg19
g2376
sg21
g22
sbag7
(g8
g9
NtRp2503
(dp2504
g12
g13
sg14
S'Symbol'
p2505
sg16
I500
sg17
g13
sg18
g13
sg19
g2377
sg21
g22
sbag7
(g8
g9
NtRp2506
(dp2507
g12
g13
sg14
S'ZapfDingbats'
p2508
sg16
I500
sg17
g13
sg18
g13
sg19
g2378
sg21
g22
sbag7
(g8
g9
NtRp2509
(dp2510
g12
g13
sg14
S'Utopia'
p2511
sg16
I400
sg17
g13
sg18
g13
sg19
g2379
sg21
g22
sbag7
(g8
g9
NtRp2512
(dp2513
g12
g13
sg14
S'Computer Modern'
p2514
sg16
I500
sg17
g13
sg18
g13
sg19
g2380
sg21
g22
sbag7
(g8
g9
NtRp2515
(dp2516
g12
g74
sg14
S'Times'
p2517
sg16
I500
sg17
g13
sg18
g13
sg19
g2381
sg21
g22
sbag7
(g8
g9
NtRp2518
(dp2519
g12
g13
sg14
S'Times'
p2520
sg16
I500
sg17
g13
sg18
g13
sg19
g2382
sg21
g22
sbag7
(g8
g9
NtRp2521
(dp2522
g12
g74
sg14
S'Helvetica'
p2523
sg16
I500
sg17
g13
sg18
g13
sg19
g2383
sg21
g22
sbag7
(g8
g9
NtRp2524
(dp2525
g12
g13
sg14
S'Computer Modern'
p2526
sg16
I500
sg17
g13
sg18
g13
sg19
g2384
sg21
g22
sbag7
(g8
g9
NtRp2527
(dp2528
g12
g74
sg14
S'Courier'
p2529
sg16
I500
sg17
g13
sg18
g13
sg19
g2385
sg21
g22
sbag7
(g8
g9
NtRp2530
(dp2531
g12
g74
sg14
S'Courier'
p2532
sg16
I500
sg17
g13
sg18
g13
sg19
g2386
sg21
g22
sbag7
(g8
g9
NtRp2533
(dp2534
g12
g13
sg14
S'Courier'
p2535
sg16
I500
sg17
g13
sg18
g13
sg19
g2387
sg21
g22
sbag7
(g8
g9
NtRp2536
(dp2537
g12
g74
sg14
S'Times'
p2538
sg16
I700
sg17
g13
sg18
g13
sg19
g2388
sg21
g22
sbag7
(g8
g9
NtRp2539
(dp2540
g12
g74
sg14
S'ITC Avant Garde Gothic'
p2541
sg16
I600
sg17
g13
sg18
g13
sg19
g2389
sg21
g22
sbag7
(g8
g9
NtRp2542
(dp2543
g12
g74
sg14
S'Times'
p2544
sg16
I700
sg17
g13
sg18
g13
sg19
g2390
sg21
g22
sbag7
(g8
g9
NtRp2545
(dp2546
g12
g74
sg14
S'Helvetica'
p2547
sg16
I700
sg17
g13
sg18
g13
sg19
g2391
sg21
g22
sbag7
(g8
g9
NtRp2548
(dp2549
g12
g13
sg14
S'ITC Bookman'
p2550
sg16
I600
sg17
g13
sg18
g13
sg19
g2392
sg21
g22
sbag7
(g8
g9
NtRp2551
(dp2552
g12
g13
sg14
S'Palatino'
p2553
sg16
I500
sg17
g13
sg18
g13
sg19
g2393
sg21
g22
sbag7
(g8
g9
NtRp2554
(dp2555
g12
g13
sg14
S'ITC Avant Garde Gothic'
p2556
sg16
I400
sg17
g13
sg18
g13
sg19
g2394
sg21
g22
sbag7
(g8
g9
NtRp2557
(dp2558
g12
g74
sg14
S'Utopia'
p2559
sg16
I400
sg17
g13
sg18
g13
sg19
g2395
sg21
g22
sbag7
(g8
g9
NtRp2560
(dp2561
g12
g74
sg14
S'Courier'
p2562
sg16
I700
sg17
g13
sg18
g13
sg19
g2396
sg21
g22
sbag7
(g8
g9
NtRp2563
(dp2564
g12
g13
sg14
S'Courier'
p2565
sg16
I700
sg17
g13
sg18
g13
sg19
g2397
sg21
g22
sbag7
(g8
g9
NtRp2566
(dp2567
g12
g74
sg14
S'Helvetica'
p2568
sg16
I500
sg17
g13
sg18
g13
sg19
g2398
sg21
g22
sbag7
(g8
g9
NtRp2569
(dp2570
g12
g74
sg14
S'ITC Bookman'
p2571
sg16
I600
sg17
g13
sg18
g13
sg19
g2399
sg21
g22
sbag7
(g8
g9
NtRp2572
(dp2573
g12
g13
sg14
S'Times'
p2574
sg16
I700
sg17
g13
sg18
g13
sg19
g2400
sg21
g22
sbag7
(g8
g9
NtRp2575
(dp2576
g12
g74
sg14
S'Palatino'
p2577
sg16
I500
sg17
g13
sg18
g13
sg19
g2401
sg21
g22
sbag7
(g8
g9
NtRp2578
(dp2579
g12
g13
sg14
S'New Century Schoolbook'
p2580
sg16
I700
sg17
g13
sg18
g13
sg19
g2402
sg21
g22
sbag7
(g8
g9
NtRp2581
(dp2582
g12
g13
sg14
S'Utopia'
p2583
sg16
I700
sg17
g13
sg18
g13
sg19
g2403
sg21
g22
sbag7
(g8
g9
NtRp2584
(dp2585
g12
g74
sg14
S'New Century Schoolbook'
p2586
sg16
I700
sg17
g13
sg18
g13
sg19
g2404
sg21
g22
sbag7
(g8
g9
NtRp2587
(dp2588
g12
g74
sg14
S'ITC Bookman'
p2589
sg16
I200
sg17
g13
sg18
g13
sg19
g2405
sg21
g22
sbag7
(g8
g9
NtRp2590
(dp2591
g12
g13
sg14
S'Helvetica'
p2592
sg16
I700
sg17
g13
sg18
g13
sg19
g2406
sg21
g22
sbag7
(g8
g9
NtRp2593
(dp2594
g12
g13
sg14
S'Courier'
p2595
sg16
I500
sg17
g13
sg18
g13
sg19
g2407
sg21
g22
sbag7
(g8
g9
NtRp2596
(dp2597
g12
g74
sg14
S'Computer Modern'
p2598
sg16
I500
sg17
g13
sg18
g13
sg19
g2408
sg21
g22
sbag7
(g8
g9
NtRp2599
(dp2600
g12
g74
sg14
S'Computer Modern'
p2601
sg16
I500
sg17
g13
sg18
g13
sg19
g2409
sg21
g22
sbag7
(g8
g9
NtRp2602
(dp2603
g12
g74
sg14
S'Palatino'
p2604
sg16
I700
sg17
g13
sg18
g13
sg19
g2410
sg21
g22
sbag7
(g8
g9
NtRp2605
(dp2606
g12
g13
sg14
S'Computer Modern'
p2607
sg16
I500
sg17
g13
sg18
g13
sg19
g2411
sg21
g22
sbag7
(g8
g9
NtRp2608
(dp2609
g12
g74
sg14
S'New Century Schoolbook'
p2610
sg16
I500
sg17
g13
sg18
g13
sg19
g2412
sg21
g22
sbag7
(g8
g9
NtRp2611
(dp2612
g12
g74
sg14
S'ITC Avant Garde Gothic'
p2613
sg16
I400
sg17
g13
sg18
g13
sg19
g2413
sg21
g22
sbag7
(g8
g9
NtRp2614
(dp2615
g12
g74
sg14
S'ITC Zapf Chancery'
p2616
sg16
I500
sg17
g13
sg18
g13
sg19
g2414
sg21
g22
sbag7
(g8
g9
NtRp2617
(dp2618
g12
g74
sg14
S'Courier'
p2619
sg16
I700
sg17
g13
sg18
g13
sg19
g2415
sg21
g22
sbag7
(g8
g9
NtRp2620
(dp2621
g12
g74
sg14
S'Helvetica'
p2622
sg16
I500
sg17
g168
sg18
g13
sg19
g2416
sg21
g22
sbag7
(g8
g9
NtRp2623
(dp2624
g12
g13
sg14
S'Palatino'
p2625
sg16
I700
sg17
g13
sg18
g13
sg19
g2417
sg21
g22
sbag7
(g8
g9
NtRp2626
(dp2627
g12
g13
sg14
S'Helvetica'
p2628
sg16
I500
sg17
g13
sg18
g13
sg19
g2418
sg21
g22
sbag7
(g8
g9
NtRp2629
(dp2630
g12
g13
sg14
S'Utopia'
p2631
sg16
I700
sg17
g13
sg18
g13
sg19
g2419
sg21
g22
sbag7
(g8
g9
NtRp2632
(dp2633
g12
g13
sg14
S'Courier 10 Pitch'
p2634
sg16
I700
sg17
g13
sg18
g13
sg19
g2420
sg21
g22
sbag7
(g8
g9
NtRp2635
(dp2636
g12
g74
sg14
S'Luxi Serif'
p2637
sg16
I700
sg17
g13
sg18
g13
sg19
g2421
sg21
g22
sbag7
(g8
g9
NtRp2638
(dp2639
g12
g74
sg14
S'Bitstream Charter'
p2640
sg16
I400
sg17
g13
sg18
g13
sg19
g2422
sg21
g22
sbag7
(g8
g9
NtRp2641
(dp2642
g12
g13
sg14
S'Utopia'
p2643
sg16
I400
sg17
g13
sg18
g13
sg19
g2423
sg21
g22
sbag7
(g8
g9
NtRp2644
(dp2645
g12
g74
sg14
S'Courier 10 Pitch'
p2646
sg16
I400
sg17
g13
sg18
g13
sg19
g2424
sg21
g22
sbag7
(g8
g9
NtRp2647
(dp2648
g12
g13
sg14
S'Bitstream Charter'
p2649
sg16
I400
sg17
g13
sg18
g13
sg19
g2425
sg21
g22
sbag7
(g8
g9
NtRp2650
(dp2651
g12
g74
sg14
S'Bitstream Charter'
p2652
sg16
I700
sg17
g13
sg18
g13
sg19
g2426
sg21
g22
sbag7
(g8
g9
NtRp2653
(dp2654
g12
g13
sg14
S'Luxi Sans'
p2655
sg16
I400
sg17
g13
sg18
g13
sg19
g2427
sg21
g22
sbag7
(g8
g9
NtRp2656
(dp2657
g12
g13
sg14
S'Courier'
p2658
sg16
I700
sg17
g13
sg18
g13
sg19
g2428
sg21
g22
sbag7
(g8
g9
NtRp2659
(dp2660
g12
g13
sg14
S'Courier 10 Pitch'
p2661
sg16
I400
sg17
g13
sg18
g13
sg19
g2429
sg21
g22
sbag7
(g8
g9
NtRp2662
(dp2663
g12
g74
sg14
S'Utopia'
p2664
sg16
I400
sg17
g13
sg18
g13
sg19
g2430
sg21
g22
sbag7
(g8
g9
NtRp2665
(dp2666
g12
g13
sg14
S'Luxi Serif'
p2667
sg16
I700
sg17
g13
sg18
g13
sg19
g2431
sg21
g22
sbag7
(g8
g9
NtRp2668
(dp2669
g12
g74
sg14
S'Luxi Sans'
p2670
sg16
I400
sg17
g13
sg18
g13
sg19
g2432
sg21
g22
sbag7
(g8
g9
NtRp2671
(dp2672
g12
g13
sg14
S'Luxi Sans'
p2673
sg16
I700
sg17
g13
sg18
g13
sg19
g2433
sg21
g22
sbag7
(g8
g9
NtRp2674
(dp2675
g12
g74
sg14
S'Luxi Sans'
p2676
sg16
I700
sg17
g13
sg18
g13
sg19
g2434
sg21
g22
sbag7
(g8
g9
NtRp2677
(dp2678
g12
g74
sg14
S'Courier'
p2679
sg16
I700
sg17
g13
sg18
g13
sg19
g2435
sg21
g22
sbag7
(g8
g9
NtRp2680
(dp2681
g12
g13
sg14
S'Bitstream Charter'
p2682
sg16
I700
sg17
g13
sg18
g13
sg19
g2436
sg21
g22
sbag7
(g8
g9
NtRp2683
(dp2684
g12
g13
sg14
S'Luxi Serif'
p2685
sg16
I400
sg17
g13
sg18
g13
sg19
g2437
sg21
g22
sbag7
(g8
g9
NtRp2686
(dp2687
g12
g74
sg14
S'Courier 10 Pitch'
p2688
sg16
I700
sg17
g13
sg18
g13
sg19
g2438
sg21
g22
sbag7
(g8
g9
NtRp2689
(dp2690
g12
g74
sg14
S'Luxi Mono'
p2691
sg16
I700
sg17
g13
sg18
g13
sg19
g2439
sg21
g22
sbag7
(g8
g9
NtRp2692
(dp2693
g12
g13
sg14
S'Luxi Mono'
p2694
sg16
I700
sg17
g13
sg18
g13
sg19
g2440
sg21
g22
sbag7
(g8
g9
NtRp2695
(dp2696
g12
g74
sg14
S'Luxi Mono'
p2697
sg16
I400
sg17
g13
sg18
g13
sg19
g2441
sg21
g22
sbag7
(g8
g9
NtRp2698
(dp2699
g12
g13
sg14
S'Luxi Mono'
p2700
sg16
I400
sg17
g13
sg18
g13
sg19
g2442
sg21
g22
sbag7
(g8
g9
NtRp2701
(dp2702
g12
g74
sg14
S'Luxi Serif'
p2703
sg16
I400
sg17
g13
sg18
g13
sg19
g2443
sg21
g22
sbag7
(g8
g9
NtRp2704
(dp2705
g12
g74
sg14
S'Utopia'
p2706
sg16
I700
sg17
g13
sg18
g13
sg19
g2444
sg21
g22
sbag7
(g8
g9
NtRp2707
(dp2708
g12
g13
sg14
S'Courier'
p2709
sg16
I400
sg17
g13
sg18
g13
sg19
g2445
sg21
g22
sbag7
(g8
g9
NtRp2710
(dp2711
g12
g74
sg14
S'Courier'
p2712
sg16
I400
sg17
g13
sg18
g13
sg19
g2446
sg21
g22
sbasb.